(imatplotlib.font_manager
FontManager
p1
(dp2
S'afm_lookup_cache'
p3
(dp4
sS'ttflist'
p5
(lp6
ccopy_reg
_reconstructor
p7
(cmatplotlib.font_manager
FontEntry
p8
c__builtin__
object
p9
NtRp10
(dp11
S'style'
p12
S'normal'
p13
sS'name'
p14
S'cmb10'
p15
sS'weight'
p16
I400
sS'stretch'
p17
g13
sS'variant'
p18
g13
sS'fname'
p19
S'c:\\Python27\\lib\\site-packages\\matplotlib\\mpl-data\\fonts\\ttf\\cmb10.ttf'
p20
sS'size'
p21
S'scalable'
p22
sbag7
(g8
g9
NtRp23
(dp24
g12
g13
sg14
S'STIXNonUnicode'
p25
sg16
I400
sg17
g13
sg18
g13
sg19
S'c:\\Python27\\lib\\site-packages\\matplotlib\\mpl-data\\fonts\\ttf\\STIXNonUni.ttf'
p26
sg21
g22
sbag7
(g8
g9
NtRp27
(dp28
g12
g13
sg14
S'Bitstream Vera Sans Mono'
p29
sg16
I400
sg17
g13
sg18
g13
sg19
S'c:\\Python27\\lib\\site-packages\\matplotlib\\mpl-data\\fonts\\ttf\\VeraMono.ttf'
p30
sg21
g22
sbag7
(g8
g9
NtRp31
(dp32
g12
g13
sg14
S'STIXSizeTwoSym'
p33
sg16
I400
sg17
g13
sg18
g13
sg19
S'c:\\Python27\\lib\\site-packages\\matplotlib\\mpl-data\\fonts\\ttf\\STIXSizTwoSymReg.ttf'
p34
sg21
g22
sbag7
(g8
g9
NtRp35
(dp36
g12
g13
sg14
S'cmtt10'
p37
sg16
I400
sg17
g13
sg18
g13
sg19
S'c:\\Python27\\lib\\site-packages\\matplotlib\\mpl-data\\fonts\\ttf\\cmtt10.ttf'
p38
sg21
g22
sbag7
(g8
g9
NtRp39
(dp40
g12
g13
sg14
S'cmmi10'
p41
sg16
I400
sg17
g13
sg18
g13
sg19
S'c:\\Python27\\lib\\site-packages\\matplotlib\\mpl-data\\fonts\\ttf\\cmmi10.ttf'
p42
sg21
g22
sbag7
(g8
g9
NtRp43
(dp44
g12
g13
sg14
S'STIXSizeOneSym'
p45
sg16
I400
sg17
g13
sg18
g13
sg19
S'c:\\Python27\\lib\\site-packages\\matplotlib\\mpl-data\\fonts\\ttf\\STIXSizOneSymReg.ttf'
p46
sg21
g22
sbag7
(g8
g9
NtRp47
(dp48
g12
g13
sg14
S'STIXSizeFiveSym'
p49
sg16
I400
sg17
g13
sg18
g13
sg19
S'c:\\Python27\\lib\\site-packages\\matplotlib\\mpl-data\\fonts\\ttf\\STIXSizFiveSymReg.ttf'
p50
sg21
g22
sbag7
(g8
g9
NtRp51
(dp52
g12
g13
sg14
S'STIXGeneral'
p53
sg16
I700
sg17
g13
sg18
g13
sg19
S'c:\\Python27\\lib\\site-packages\\matplotlib\\mpl-data\\fonts\\ttf\\STIXGeneralBol.ttf'
p54
sg21
g22
sbag7
(g8
g9
NtRp55
(dp56
g12
g13
sg14
S'Bitstream Vera Sans Mono'
p57
sg16
I700
sg17
g13
sg18
g13
sg19
S'c:\\Python27\\lib\\site-packages\\matplotlib\\mpl-data\\fonts\\ttf\\VeraMoBd.ttf'
p58
sg21
g22
sbag7
(g8
g9
NtRp59
(dp60
g12
g13
sg14
S'Bitstream Vera Sans'
p61
sg16
I400
sg17
g13
sg18
g13
sg19
S'c:\\Python27\\lib\\site-packages\\matplotlib\\mpl-data\\fonts\\ttf\\Vera.ttf'
p62
sg21
g22
sbag7
(g8
g9
NtRp63
(dp64
g12
g13
sg14
S'STIXSizeOneSym'
p65
sg16
I700
sg17
g13
sg18
g13
sg19
S'c:\\Python27\\lib\\site-packages\\matplotlib\\mpl-data\\fonts\\ttf\\STIXSizOneSymBol.ttf'
p66
sg21
g22
sbag7
(g8
g9
NtRp67
(dp68
g12
g13
sg14
S'STIXSizeThreeSym'
p69
sg16
I400
sg17
g13
sg18
g13
sg19
S'c:\\Python27\\lib\\site-packages\\matplotlib\\mpl-data\\fonts\\ttf\\STIXSizThreeSymReg.ttf'
p70
sg21
g22
sbag7
(g8
g9
NtRp71
(dp72
g12
g13
sg14
S'STIXNonUnicode'
p73
sg16
I700
sg17
g13
sg18
g13
sg19
S'c:\\Python27\\lib\\site-packages\\matplotlib\\mpl-data\\fonts\\ttf\\STIXNonUniBol.ttf'
p74
sg21
g22
sbag7
(g8
g9
NtRp75
(dp76
g12
g13
sg14
S'Bitstream Vera Sans'
p77
sg16
I700
sg17
g13
sg18
g13
sg19
S'c:\\Python27\\lib\\site-packages\\matplotlib\\mpl-data\\fonts\\ttf\\VeraBd.ttf'
p78
sg21
g22
sbag7
(g8
g9
NtRp79
(dp80
g12
g13
sg14
S'cmr10'
p81
sg16
I400
sg17
g13
sg18
g13
sg19
S'c:\\Python27\\lib\\site-packages\\matplotlib\\mpl-data\\fonts\\ttf\\cmr10.ttf'
p82
sg21
g22
sbag7
(g8
g9
NtRp83
(dp84
g12
g13
sg14
S'STIXGeneral'
p85
sg16
I400
sg17
g13
sg18
g13
sg19
S'c:\\Python27\\lib\\site-packages\\matplotlib\\mpl-data\\fonts\\ttf\\STIXGeneral.ttf'
p86
sg21
g22
sbag7
(g8
g9
NtRp87
(dp88
g12
S'oblique'
p89
sg14
S'Bitstream Vera Sans Mono'
p90
sg16
I400
sg17
g13
sg18
g13
sg19
S'c:\\Python27\\lib\\site-packages\\matplotlib\\mpl-data\\fonts\\ttf\\VeraMoIt.ttf'
p91
sg21
g22
sbag7
(g8
g9
NtRp92
(dp93
g12
S'italic'
p94
sg14
S'STIXGeneral'
p95
sg16
I700
sg17
g13
sg18
g13
sg19
S'c:\\Python27\\lib\\site-packages\\matplotlib\\mpl-data\\fonts\\ttf\\STIXGeneralBolIta.ttf'
p96
sg21
g22
sbag7
(g8
g9
NtRp97
(dp98
g12
g13
sg14
S'STIXSizeTwoSym'
p99
sg16
I700
sg17
g13
sg18
g13
sg19
S'c:\\Python27\\lib\\site-packages\\matplotlib\\mpl-data\\fonts\\ttf\\STIXSizTwoSymBol.ttf'
p100
sg21
g22
sbag7
(g8
g9
NtRp101
(dp102
g12
g13
sg14
S'Bitstream Vera Serif'
p103
sg16
I400
sg17
g13
sg18
g13
sg19
S'c:\\Python27\\lib\\site-packages\\matplotlib\\mpl-data\\fonts\\ttf\\VeraSe.ttf'
p104
sg21
g22
sbag7
(g8
g9
NtRp105
(dp106
g12
g13
sg14
S'Bitstream Vera Serif'
p107
sg16
I700
sg17
g13
sg18
g13
sg19
S'c:\\Python27\\lib\\site-packages\\matplotlib\\mpl-data\\fonts\\ttf\\VeraSeBd.ttf'
p108
sg21
g22
sbag7
(g8
g9
NtRp109
(dp110
g12
g13
sg14
S'cmss10'
p111
sg16
I400
sg17
g13
sg18
g13
sg19
S'c:\\Python27\\lib\\site-packages\\matplotlib\\mpl-data\\fonts\\ttf\\cmss10.ttf'
p112
sg21
g22
sbag7
(g8
g9
NtRp113
(dp114
g12
g94
sg14
S'STIXGeneral'
p115
sg16
I400
sg17
g13
sg18
g13
sg19
S'c:\\Python27\\lib\\site-packages\\matplotlib\\mpl-data\\fonts\\ttf\\STIXGeneralItalic.ttf'
p116
sg21
g22
sbag7
(g8
g9
NtRp117
(dp118
g12
g13
sg14
S'STIXSizeFourSym'
p119
sg16
I700
sg17
g13
sg18
g13
sg19
S'c:\\Python27\\lib\\site-packages\\matplotlib\\mpl-data\\fonts\\ttf\\STIXSizFourSymBol.ttf'
p120
sg21
g22
sbag7
(g8
g9
NtRp121
(dp122
g12
g13
sg14
S'cmsy10'
p123
sg16
I400
sg17
g13
sg18
g13
sg19
S'c:\\Python27\\lib\\site-packages\\matplotlib\\mpl-data\\fonts\\ttf\\cmsy10.ttf'
p124
sg21
g22
sbag7
(g8
g9
NtRp125
(dp126
g12
g13
sg14
S'cmex10'
p127
sg16
I400
sg17
g13
sg18
g13
sg19
S'c:\\Python27\\lib\\site-packages\\matplotlib\\mpl-data\\fonts\\ttf\\cmex10.ttf'
p128
sg21
g22
sbag7
(g8
g9
NtRp129
(dp130
g12
g89
sg14
S'Bitstream Vera Sans Mono'
p131
sg16
I700
sg17
g13
sg18
g13
sg19
S'c:\\Python27\\lib\\site-packages\\matplotlib\\mpl-data\\fonts\\ttf\\VeraMoBI.ttf'
p132
sg21
g22
sbag7
(g8
g9
NtRp133
(dp134
g12
g94
sg14
S'STIXNonUnicode'
p135
sg16
I400
sg17
g13
sg18
g13
sg19
S'c:\\Python27\\lib\\site-packages\\matplotlib\\mpl-data\\fonts\\ttf\\STIXNonUniIta.ttf'
p136
sg21
g22
sbag7
(g8
g9
NtRp137
(dp138
g12
g89
sg14
S'Bitstream Vera Sans'
p139
sg16
I700
sg17
g13
sg18
g13
sg19
S'c:\\Python27\\lib\\site-packages\\matplotlib\\mpl-data\\fonts\\ttf\\VeraBI.ttf'
p140
sg21
g22
sbag7
(g8
g9
NtRp141
(dp142
g12
g94
sg14
S'STIXNonUnicode'
p143
sg16
I700
sg17
g13
sg18
g13
sg19
S'c:\\Python27\\lib\\site-packages\\matplotlib\\mpl-data\\fonts\\ttf\\STIXNonUniBolIta.ttf'
p144
sg21
g22
sbag7
(g8
g9
NtRp145
(dp146
g12
g13
sg14
S'STIXSizeThreeSym'
p147
sg16
I700
sg17
g13
sg18
g13
sg19
S'c:\\Python27\\lib\\site-packages\\matplotlib\\mpl-data\\fonts\\ttf\\STIXSizThreeSymBol.ttf'
p148
sg21
g22
sbag7
(g8
g9
NtRp149
(dp150
g12
g13
sg14
S'STIXSizeFourSym'
p151
sg16
I400
sg17
g13
sg18
g13
sg19
S'c:\\Python27\\lib\\site-packages\\matplotlib\\mpl-data\\fonts\\ttf\\STIXSizFourSymReg.ttf'
p152
sg21
g22
sbag7
(g8
g9
NtRp153
(dp154
g12
g89
sg14
S'Bitstream Vera Sans'
p155
sg16
I400
sg17
g13
sg18
g13
sg19
S'c:\\Python27\\lib\\site-packages\\matplotlib\\mpl-data\\fonts\\ttf\\VeraIt.ttf'
p156
sg21
g22
sbag7
(g8
g9
NtRp157
(dp158
g12
g13
sg14
S'Courier New'
p159
sg16
I400
sg17
g13
sg18
g13
sg19
S'C:\\Windows\\Fonts\\cour.ttf'
p160
sg21
g22
sbag7
(g8
g9
NtRp161
(dp162
g12
g94
sg14
S'Browallia New'
p163
sg16
I400
sg17
g13
sg18
g13
sg19
S'c:\\windows\\fonts\\browai.ttf'
p164
sg21
g22
sbag7
(g8
g9
NtRp165
(dp166
g12
g13
sg14
S'Cambria'
p167
sg16
I700
sg17
g13
sg18
g13
sg19
S'c:\\windows\\fonts\\cambriab.ttf'
p168
sg21
g22
sbag7
(g8
g9
NtRp169
(dp170
g12
g94
sg14
S'Verdana'
p171
sg16
I700
sg17
g13
sg18
g13
sg19
S'C:\\Windows\\Fonts\\verdanaz.ttf'
p172
sg21
g22
sbag7
(g8
g9
NtRp173
(dp174
g12
g94
sg14
S'Palatino Linotype'
p175
sg16
I700
sg17
g13
sg18
g13
sg19
S'C:\\Windows\\Fonts\\palabi.ttf'
p176
sg21
g22
sbag7
(g8
g9
NtRp177
(dp178
g12
g94
sg14
S'JasmineUPC'
p179
sg16
I400
sg17
g13
sg18
g13
sg19
S'c:\\windows\\fonts\\upcji.ttf'
p180
sg21
g22
sbag7
(g8
g9
NtRp181
(dp182
g12
g13
sg14
S'Microsoft Tai Le'
p183
sg16
I700
sg17
g13
sg18
g13
sg19
S'C:\\Windows\\Fonts\\taileb.ttf'
p184
sg21
g22
sbag7
(g8
g9
NtRp185
(dp186
g12
g13
sg14
S'Trebuchet MS'
p187
sg16
I700
sg17
g13
sg18
g13
sg19
S'c:\\windows\\fonts\\trebucbd.ttf'
p188
sg21
g22
sbag7
(g8
g9
NtRp189
(dp190
g12
g13
sg14
S'Tahoma'
p191
sg16
I700
sg17
g13
sg18
g13
sg19
S'C:\\Windows\\Fonts\\tahomabd.ttf'
p192
sg21
g22
sbag7
(g8
g9
NtRp193
(dp194
g12
g13
sg14
S'Raavi'
p195
sg16
I400
sg17
g13
sg18
g13
sg19
S'C:\\Windows\\Fonts\\raavi.ttf'
p196
sg21
g22
sbag7
(g8
g9
NtRp197
(dp198
g12
g13
sg14
S'BrowalliaUPC'
p199
sg16
I400
sg17
g13
sg18
g13
sg19
S'c:\\windows\\fonts\\browau.ttf'
p200
sg21
g22
sbag7
(g8
g9
NtRp201
(dp202
g12
g13
sg14
S'KaiTi'
p203
sg16
I400
sg17
g13
sg18
g13
sg19
S'c:\\windows\\fonts\\simkai.ttf'
p204
sg21
g22
sbag7
(g8
g9
NtRp205
(dp206
g12
g94
sg14
S'Trebuchet MS'
p207
sg16
I700
sg17
g13
sg18
g13
sg19
S'c:\\windows\\fonts\\trebucbi.ttf'
p208
sg21
g22
sbag7
(g8
g9
NtRp209
(dp210
g12
g94
sg14
S'Segoe UI'
p211
sg16
I700
sg17
g13
sg18
g13
sg19
S'c:\\windows\\fonts\\segoeuiz.ttf'
p212
sg21
g22
sbag7
(g8
g9
NtRp213
(dp214
g12
g94
sg14
S'BrowalliaUPC'
p215
sg16
I700
sg17
g13
sg18
g13
sg19
S'c:\\windows\\fonts\\browauz.ttf'
p216
sg21
g22
sbag7
(g8
g9
NtRp217
(dp218
g12
g13
sg14
S'Malgun Gothic'
p219
sg16
I700
sg17
g13
sg18
g13
sg19
S'C:\\Windows\\Fonts\\malgunbd.ttf'
p220
sg21
g22
sbag7
(g8
g9
NtRp221
(dp222
g12
g13
sg14
S'DokChampa'
p223
sg16
I400
sg17
g13
sg18
g13
sg19
S'C:\\Windows\\Fonts\\dokchamp.ttf'
p224
sg21
g22
sbag7
(g8
g9
NtRp225
(dp226
g12
g94
sg14
S'Arial'
p227
sg16
I400
sg17
g13
sg18
g13
sg19
S'c:\\windows\\fonts\\ariali.ttf'
p228
sg21
g22
sbag7
(g8
g9
NtRp229
(dp230
g12
g13
sg14
S'Khmer UI'
p231
sg16
I700
sg17
g13
sg18
g13
sg19
S'c:\\windows\\fonts\\khmeruib.ttf'
p232
sg21
g22
sbag7
(g8
g9
NtRp233
(dp234
g12
g89
sg14
S'DejaVu Sans'
p235
sg16
I700
sg17
S'condensed'
p236
sg18
g13
sg19
S'C:\\Windows\\Fonts\\DejaVuSansCondensed-BoldOblique.ttf'
p237
sg21
g22
sbag7
(g8
g9
NtRp238
(dp239
g12
g94
sg14
S'Gentium Book Basic'
p240
sg16
I700
sg17
g13
sg18
g13
sg19
S'c:\\windows\\fonts\\genbkbasbi.ttf'
p241
sg21
g22
sbag7
(g8
g9
NtRp242
(dp243
g12
g13
sg14
S'Simplified Arabic'
p244
sg16
I400
sg17
g13
sg18
g13
sg19
S'c:\\windows\\fonts\\simpo.ttf'
p245
sg21
g22
sbag7
(g8
g9
NtRp246
(dp247
g12
g13
sg14
S'Arabic Typesetting'
p248
sg16
I400
sg17
g13
sg18
g13
sg19
S'c:\\windows\\fonts\\arabtype.ttf'
p249
sg21
g22
sbag7
(g8
g9
NtRp250
(dp251
g12
g13
sg14
S'Kartika'
p252
sg16
I700
sg17
g13
sg18
g13
sg19
S'C:\\Windows\\Fonts\\kartikab.ttf'
p253
sg21
g22
sbag7
(g8
g9
NtRp254
(dp255
g12
g13
sg14
S'Khmer UI'
p256
sg16
I400
sg17
g13
sg18
g13
sg19
S'c:\\windows\\fonts\\khmerui.ttf'
p257
sg21
g22
sbag7
(g8
g9
NtRp258
(dp259
g12
g13
sg14
S'Segoe UI'
p260
sg16
I400
sg17
g13
sg18
g13
sg19
S'c:\\windows\\fonts\\seguisb.ttf'
p261
sg21
g22
sbag7
(g8
g9
NtRp262
(dp263
g12
g13
sg14
S'Kokila'
p264
sg16
I700
sg17
g13
sg18
g13
sg19
S'C:\\Windows\\Fonts\\kokilab.ttf'
p265
sg21
g22
sbag7
(g8
g9
NtRp266
(dp267
g12
g13
sg14
S'Calibri'
p268
sg16
I200
sg17
g13
sg18
g13
sg19
S'C:\\Windows\\Fonts\\calibril.ttf'
p269
sg21
g22
sbag7
(g8
g9
NtRp270
(dp271
g12
g13
sg14
S'Cordia New'
p272
sg16
I700
sg17
g13
sg18
g13
sg19
S'C:\\Windows\\Fonts\\cordiab.ttf'
p273
sg21
g22
sbag7
(g8
g9
NtRp274
(dp275
g12
g13
sg14
S'Liberation Serif'
p276
sg16
I400
sg17
g13
sg18
g13
sg19
S'c:\\windows\\fonts\\liberationserif-regular.ttf'
p277
sg21
g22
sbag7
(g8
g9
NtRp278
(dp279
g12
g13
sg14
S'Euphemia'
p280
sg16
I400
sg17
g13
sg18
g13
sg19
S'C:\\Windows\\Fonts\\euphemia.ttf'
p281
sg21
g22
sbag7
(g8
g9
NtRp282
(dp283
g12
g94
sg14
S'Georgia'
p284
sg16
I400
sg17
g13
sg18
g13
sg19
S'C:\\Windows\\Fonts\\georgiai.ttf'
p285
sg21
g22
sbag7
(g8
g9
NtRp286
(dp287
g12
g13
sg14
S'Leelawadee'
p288
sg16
I700
sg17
g13
sg18
g13
sg19
S'C:\\Windows\\Fonts\\leelawdb.ttf'
p289
sg21
g22
sbag7
(g8
g9
NtRp290
(dp291
g12
g13
sg14
S'DejaVu Serif'
p292
sg16
I700
sg17
g13
sg18
g13
sg19
S'c:\\windows\\fonts\\dejavuserif-bold.ttf'
p293
sg21
g22
sbag7
(g8
g9
NtRp294
(dp295
g12
g13
sg14
S'Microsoft Himalaya'
p296
sg16
I400
sg17
g13
sg18
g13
sg19
S'C:\\Windows\\Fonts\\himalaya.ttf'
p297
sg21
g22
sbag7
(g8
g9
NtRp298
(dp299
g12
g13
sg14
S'Cordia New'
p300
sg16
I400
sg17
g13
sg18
g13
sg19
S'C:\\Windows\\Fonts\\cordia.ttf'
p301
sg21
g22
sbag7
(g8
g9
NtRp302
(dp303
g12
g13
sg14
S'Gautami'
p304
sg16
I700
sg17
g13
sg18
g13
sg19
S'c:\\windows\\fonts\\gautamib.ttf'
p305
sg21
g22
sbag7
(g8
g9
NtRp306
(dp307
g12
g94
sg14
S'Linux Libertine G'
p308
sg16
I700
sg17
g13
sg18
g13
sg19
S'C:\\Windows\\Fonts\\LinLibertine_RZI_G.ttf'
p309
sg21
g22
sbag7
(g8
g9
NtRp310
(dp311
g12
g13
sg14
S'DejaVu Sans'
p312
sg16
I700
sg17
g236
sg18
g13
sg19
S'c:\\windows\\fonts\\dejavusanscondensed-bold.ttf'
p313
sg21
g22
sbag7
(g8
g9
NtRp314
(dp315
g12
g13
sg14
S'Liberation Sans Narrow'
p316
sg16
I700
sg17
g236
sg18
g13
sg19
S'c:\\windows\\fonts\\liberationsansnarrow-bold.ttf'
p317
sg21
g22
sbag7
(g8
g9
NtRp318
(dp319
g12
g94
sg14
S'Angsana New'
p320
sg16
I400
sg17
g13
sg18
g13
sg19
S'C:\\Windows\\Fonts\\angsai.ttf'
p321
sg21
g22
sbag7
(g8
g9
NtRp322
(dp323
g12
g13
sg14
S'FreesiaUPC'
p324
sg16
I700
sg17
g13
sg18
g13
sg19
S'C:\\Windows\\Fonts\\upcfb.ttf'
p325
sg21
g22
sbag7
(g8
g9
NtRp326
(dp327
g12
g13
sg14
S'Arial'
p328
sg16
I700
sg17
g13
sg18
g13
sg19
S'c:\\windows\\fonts\\arialbd.ttf'
p329
sg21
g22
sbag7
(g8
g9
NtRp330
(dp331
g12
g13
sg14
S'Sakkal Majalla'
p332
sg16
I400
sg17
g13
sg18
g13
sg19
S'C:\\Windows\\Fonts\\majalla.ttf'
p333
sg21
g22
sbag7
(g8
g9
NtRp334
(dp335
g12
g89
sg14
S'DejaVu Sans'
p336
sg16
I700
sg17
g13
sg18
g13
sg19
S'C:\\Windows\\Fonts\\DejaVuSans-BoldOblique.ttf'
p337
sg21
g22
sbag7
(g8
g9
NtRp338
(dp339
g12
g13
sg14
S'Gentium Book Basic'
p340
sg16
I700
sg17
g13
sg18
g13
sg19
S'C:\\Windows\\Fonts\\GenBkBasB.ttf'
p341
sg21
g22
sbag7
(g8
g9
NtRp342
(dp343
g12
g13
sg14
S'Microsoft YaHei'
p344
sg16
I400
sg17
g13
sg18
g13
sg19
S'c:\\windows\\fonts\\msyh.ttf'
p345
sg21
g22
sbag7
(g8
g9
NtRp346
(dp347
g12
g13
sg14
S'Tunga'
p348
sg16
I400
sg17
g13
sg18
g13
sg19
S'C:\\Windows\\Fonts\\tunga.ttf'
p349
sg21
g22
sbag7
(g8
g9
NtRp350
(dp351
g12
g94
sg14
S'Cambria'
p352
sg16
I700
sg17
g13
sg18
g13
sg19
S'C:\\Windows\\Fonts\\cambriaz.ttf'
p353
sg21
g22
sbag7
(g8
g9
NtRp354
(dp355
g12
g94
sg14
S'IrisUPC'
p356
sg16
I700
sg17
g13
sg18
g13
sg19
S'C:\\Windows\\Fonts\\upcibi.ttf'
p357
sg21
g22
sbag7
(g8
g9
NtRp358
(dp359
g12
g13
sg14
S'Microsoft JhengHei'
p360
sg16
I700
sg17
g13
sg18
g13
sg19
S'c:\\windows\\fonts\\msjhbd.ttf'
p361
sg21
g22
sbag7
(g8
g9
NtRp362
(dp363
g12
g13
sg14
S'DejaVu Sans Mono'
p364
sg16
I400
sg17
g13
sg18
g13
sg19
S'C:\\Windows\\Fonts\\DejaVuSansMono.ttf'
p365
sg21
g22
sbag7
(g8
g9
NtRp366
(dp367
g12
g13
sg14
S'Segoe UI'
p368
sg16
I400
sg17
g13
sg18
g13
sg19
S'c:\\windows\\fonts\\segoeui.ttf'
p369
sg21
g22
sbag7
(g8
g9
NtRp370
(dp371
g12
g13
sg14
S'Levenim MT'
p372
sg16
I700
sg17
g13
sg18
g13
sg19
S'C:\\Windows\\Fonts\\lvnmbd.ttf'
p373
sg21
g22
sbag7
(g8
g9
NtRp374
(dp375
g12
g13
sg14
S'Times New Roman'
p376
sg16
I700
sg17
g13
sg18
g13
sg19
S'C:\\Windows\\Fonts\\timesbd.ttf'
p377
sg21
g22
sbag7
(g8
g9
NtRp378
(dp379
g12
g13
sg14
S'Microsoft PhagsPa'
p380
sg16
I700
sg17
g13
sg18
g13
sg19
S'C:\\Windows\\Fonts\\phagspab.ttf'
p381
sg21
g22
sbag7
(g8
g9
NtRp382
(dp383
g12
g13
sg14
S'MoolBoran'
p384
sg16
I400
sg17
g13
sg18
g13
sg19
S'C:\\Windows\\Fonts\\moolbor.ttf'
p385
sg21
g22
sbag7
(g8
g9
NtRp386
(dp387
g12
g13
sg14
S'Marlett'
p388
sg16
I400
sg17
g13
sg18
g13
sg19
S'C:\\Windows\\Fonts\\marlett.ttf'
p389
sg21
g22
sbag7
(g8
g9
NtRp390
(dp391
g12
g13
sg14
S'Browallia New'
p392
sg16
I700
sg17
g13
sg18
g13
sg19
S'c:\\windows\\fonts\\browab.ttf'
p393
sg21
g22
sbag7
(g8
g9
NtRp394
(dp395
g12
g13
sg14
S'Corbel'
p396
sg16
I700
sg17
g13
sg18
g13
sg19
S'c:\\windows\\fonts\\corbelb.ttf'
p397
sg21
g22
sbag7
(g8
g9
NtRp398
(dp399
g12
g13
sg14
S'Simplified Arabic'
p400
sg16
I700
sg17
g13
sg18
g13
sg19
S'c:\\windows\\fonts\\simpbdo.ttf'
p401
sg21
g22
sbag7
(g8
g9
NtRp402
(dp403
g12
g13
sg14
S'DejaVu Sans'
p404
sg16
I200
sg17
g13
sg18
g13
sg19
S'C:\\Windows\\Fonts\\DejaVuSans-ExtraLight.ttf'
p405
sg21
g22
sbag7
(g8
g9
NtRp406
(dp407
g12
g13
sg14
S'LilyUPC'
p408
sg16
I400
sg17
g13
sg18
g13
sg19
S'C:\\Windows\\Fonts\\upcll.ttf'
p409
sg21
g22
sbag7
(g8
g9
NtRp410
(dp411
g12
g94
sg14
S'FreesiaUPC'
p412
sg16
I700
sg17
g13
sg18
g13
sg19
S'C:\\Windows\\Fonts\\upcfbi.ttf'
p413
sg21
g22
sbag7
(g8
g9
NtRp414
(dp415
g12
g94
sg14
S'Gentium Book Basic'
p416
sg16
I700
sg17
g13
sg18
g13
sg19
S'C:\\Windows\\Fonts\\GenBkBasBI.ttf'
p417
sg21
g22
sbag7
(g8
g9
NtRp418
(dp419
g12
g13
sg14
S'Consolas'
p420
sg16
I400
sg17
g13
sg18
g13
sg19
S'C:\\Windows\\Fonts\\consola.ttf'
p421
sg21
g22
sbag7
(g8
g9
NtRp422
(dp423
g12
g13
sg14
S'Vrinda'
p424
sg16
I700
sg17
g13
sg18
g13
sg19
S'C:\\Windows\\Fonts\\vrindab.ttf'
p425
sg21
g22
sbag7
(g8
g9
NtRp426
(dp427
g12
g13
sg14
S'Kalinga'
p428
sg16
I700
sg17
g13
sg18
g13
sg19
S'C:\\Windows\\Fonts\\kalingab.ttf'
p429
sg21
g22
sbag7
(g8
g9
NtRp430
(dp431
g12
g94
sg14
S'Calibri'
p432
sg16
I400
sg17
g13
sg18
g13
sg19
S'C:\\Windows\\Fonts\\calibrii.ttf'
p433
sg21
g22
sbag7
(g8
g9
NtRp434
(dp435
g12
g94
sg14
S'Franklin Gothic Medium'
p436
sg16
I500
sg17
g13
sg18
g13
sg19
S'C:\\Windows\\Fonts\\framdit.ttf'
p437
sg21
g22
sbag7
(g8
g9
NtRp438
(dp439
g12
g94
sg14
S'Utsaah'
p440
sg16
I400
sg17
g13
sg18
g13
sg19
S'c:\\windows\\fonts\\utsaahi.ttf'
p441
sg21
g22
sbag7
(g8
g9
NtRp442
(dp443
g12
g94
sg14
S'DilleniaUPC'
p444
sg16
I400
sg17
g13
sg18
g13
sg19
S'c:\\windows\\fonts\\upcdi.ttf'
p445
sg21
g22
sbag7
(g8
g9
NtRp446
(dp447
g12
g13
sg14
S'DFKai-SB'
p448
sg16
I400
sg17
g13
sg18
g13
sg19
S'C:\\Windows\\Fonts\\kaiu.ttf'
p449
sg21
g22
sbag7
(g8
g9
NtRp450
(dp451
g12
g94
sg14
S'AngsanaUPC'
p452
sg16
I700
sg17
g13
sg18
g13
sg19
S'c:\\windows\\fonts\\angsauz.ttf'
p453
sg21
g22
sbag7
(g8
g9
NtRp454
(dp455
g12
g13
sg14
S'Shonar Bangla'
p456
sg16
I400
sg17
g13
sg18
g13
sg19
S'c:\\windows\\fonts\\shonar.ttf'
p457
sg21
g22
sbag7
(g8
g9
NtRp458
(dp459
g12
g94
sg14
S'Verdana'
p460
sg16
I400
sg17
g13
sg18
g13
sg19
S'c:\\windows\\fonts\\verdanai.ttf'
p461
sg21
g22
sbag7
(g8
g9
NtRp462
(dp463
g12
g13
sg14
S'Constantia'
p464
sg16
I700
sg17
g13
sg18
g13
sg19
S'C:\\Windows\\Fonts\\constanb.ttf'
p465
sg21
g22
sbag7
(g8
g9
NtRp466
(dp467
g12
g94
sg14
S'Linux Libertine G'
p468
sg16
I700
sg17
g13
sg18
g13
sg19
S'C:\\Windows\\Fonts\\LinLibertine_RBI_G.ttf'
p469
sg21
g22
sbag7
(g8
g9
NtRp470
(dp471
g12
g13
sg14
S'Utsaah'
p472
sg16
I400
sg17
g13
sg18
g13
sg19
S'c:\\windows\\fonts\\utsaah.ttf'
p473
sg21
g22
sbag7
(g8
g9
NtRp474
(dp475
g12
g13
sg14
S'Microsoft YaHei'
p476
sg16
I700
sg17
g13
sg18
g13
sg19
S'c:\\windows\\fonts\\msyhbd.ttf'
p477
sg21
g22
sbag7
(g8
g9
NtRp478
(dp479
g12
g13
sg14
S'Symbol'
p480
sg16
I400
sg17
g13
sg18
g13
sg19
S'c:\\windows\\fonts\\symbol.ttf'
p481
sg21
g22
sbag7
(g8
g9
NtRp482
(dp483
g12
g13
sg14
S'OpenSymbol'
p484
sg16
I400
sg17
g13
sg18
g13
sg19
S'C:\\Windows\\Fonts\\opens___.ttf'
p485
sg21
g22
sbag7
(g8
g9
NtRp486
(dp487
g12
g13
sg14
S'Sylfaen'
p488
sg16
I400
sg17
g13
sg18
g13
sg19
S'c:\\windows\\fonts\\sylfaen.ttf'
p489
sg21
g22
sbag7
(g8
g9
NtRp490
(dp491
g12
g94
sg14
S'Liberation Mono'
p492
sg16
I400
sg17
g13
sg18
g13
sg19
S'C:\\Windows\\Fonts\\LiberationMono-Italic.ttf'
p493
sg21
g22
sbag7
(g8
g9
NtRp494
(dp495
g12
g94
sg14
S'Calibri'
p496
sg16
I700
sg17
g13
sg18
g13
sg19
S'C:\\Windows\\Fonts\\calibriz.ttf'
p497
sg21
g22
sbag7
(g8
g9
NtRp498
(dp499
g12
g13
sg14
S'Aharoni'
p500
sg16
I700
sg17
g13
sg18
g13
sg19
S'c:\\windows\\fonts\\ahronbd.ttf'
p501
sg21
g22
sbag7
(g8
g9
NtRp502
(dp503
g12
g13
sg14
S'Utsaah'
p504
sg16
I700
sg17
g13
sg18
g13
sg19
S'c:\\windows\\fonts\\utsaahb.ttf'
p505
sg21
g22
sbag7
(g8
g9
NtRp506
(dp507
g12
g94
sg14
S'JasmineUPC'
p508
sg16
I700
sg17
g13
sg18
g13
sg19
S'C:\\Windows\\Fonts\\upcjbi.ttf'
p509
sg21
g22
sbag7
(g8
g9
NtRp510
(dp511
g12
g94
sg14
S'Gentium Basic'
p512
sg16
I700
sg17
g13
sg18
g13
sg19
S'c:\\windows\\fonts\\genbasbi.ttf'
p513
sg21
g22
sbag7
(g8
g9
NtRp514
(dp515
g12
g13
sg14
S'EucrosiaUPC'
p516
sg16
I400
sg17
g13
sg18
g13
sg19
S'c:\\windows\\fonts\\upcel.ttf'
p517
sg21
g22
sbag7
(g8
g9
NtRp518
(dp519
g12
g13
sg14
S'Gentium Book Basic'
p520
sg16
I400
sg17
g13
sg18
g13
sg19
S'c:\\windows\\fonts\\genbkbasr.ttf'
p521
sg21
g22
sbag7
(g8
g9
NtRp522
(dp523
g12
g94
sg14
S'Constantia'
p524
sg16
I700
sg17
g13
sg18
g13
sg19
S'C:\\Windows\\Fonts\\constanz.ttf'
p525
sg21
g22
sbag7
(g8
g9
NtRp526
(dp527
g12
g13
sg14
S'KodchiangUPC'
p528
sg16
I400
sg17
g13
sg18
g13
sg19
S'c:\\windows\\fonts\\upckl.ttf'
p529
sg21
g22
sbag7
(g8
g9
NtRp530
(dp531
g12
g94
sg14
S'AngsanaUPC'
p532
sg16
I400
sg17
g13
sg18
g13
sg19
S'c:\\windows\\fonts\\angsaui.ttf'
p533
sg21
g22
sbag7
(g8
g9
NtRp534
(dp535
g12
g89
sg14
S'DejaVu Sans'
p536
sg16
I400
sg17
g13
sg18
g13
sg19
S'c:\\windows\\fonts\\dejavusans-oblique.ttf'
p537
sg21
g22
sbag7
(g8
g9
NtRp538
(dp539
g12
g94
sg14
S'FreesiaUPC'
p540
sg16
I400
sg17
g13
sg18
g13
sg19
S'c:\\windows\\fonts\\upcfi.ttf'
p541
sg21
g22
sbag7
(g8
g9
NtRp542
(dp543
g12
g13
sg14
S'Franklin Gothic Medium'
p544
sg16
I500
sg17
g13
sg18
g13
sg19
S'C:\\Windows\\Fonts\\framd.ttf'
p545
sg21
g22
sbag7
(g8
g9
NtRp546
(dp547
g12
g13
sg14
S'Microsoft Tai Le'
p548
sg16
I400
sg17
g13
sg18
g13
sg19
S'c:\\windows\\fonts\\taile.ttf'
p549
sg21
g22
sbag7
(g8
g9
NtRp550
(dp551
g12
g94
sg14
S'KodchiangUPC'
p552
sg16
I700
sg17
g13
sg18
g13
sg19
S'C:\\Windows\\Fonts\\upckbi.ttf'
p553
sg21
g22
sbag7
(g8
g9
NtRp554
(dp555
g12
g13
sg14
S'Calibri'
p556
sg16
I400
sg17
g13
sg18
g13
sg19
S'c:\\windows\\fonts\\calibri.ttf'
p557
sg21
g22
sbag7
(g8
g9
NtRp558
(dp559
g12
g13
sg14
S'FangSong'
p560
sg16
I400
sg17
g13
sg18
g13
sg19
S'C:\\Windows\\Fonts\\simfang.ttf'
p561
sg21
g22
sbag7
(g8
g9
NtRp562
(dp563
g12
g94
sg14
S'Gentium Book Basic'
p564
sg16
I400
sg17
g13
sg18
g13
sg19
S'c:\\windows\\fonts\\genbkbasi.ttf'
p565
sg21
g22
sbag7
(g8
g9
NtRp566
(dp567
g12
g13
sg14
S'Impact'
p568
sg16
I400
sg17
g13
sg18
g13
sg19
S'C:\\Windows\\Fonts\\impact.ttf'
p569
sg21
g22
sbag7
(g8
g9
NtRp570
(dp571
g12
g13
sg14
S'IrisUPC'
p572
sg16
I400
sg17
g13
sg18
g13
sg19
S'c:\\windows\\fonts\\upcil.ttf'
p573
sg21
g22
sbag7
(g8
g9
NtRp574
(dp575
g12
g13
sg14
S'Liberation Sans'
p576
sg16
I400
sg17
g13
sg18
g13
sg19
S'c:\\windows\\fonts\\liberationsans-regular.ttf'
p577
sg21
g22
sbag7
(g8
g9
NtRp578
(dp579
g12
g13
sg14
S'Wingdings'
p580
sg16
I400
sg17
g13
sg18
g13
sg19
S'C:\\Windows\\Fonts\\wingding.ttf'
p581
sg21
g22
sbag7
(g8
g9
NtRp582
(dp583
g12
g13
sg14
S'Latha'
p584
sg16
I400
sg17
g13
sg18
g13
sg19
S'c:\\windows\\fonts\\latha.ttf'
p585
sg21
g22
sbag7
(g8
g9
NtRp586
(dp587
g12
g13
sg14
S'Lucida Console'
p588
sg16
I400
sg17
g13
sg18
g13
sg19
S'c:\\windows\\fonts\\lucon.ttf'
p589
sg21
g22
sbag7
(g8
g9
NtRp590
(dp591
g12
g13
sg14
S'Mangal'
p592
sg16
I700
sg17
g13
sg18
g13
sg19
S'C:\\Windows\\Fonts\\mangalb.ttf'
p593
sg21
g22
sbag7
(g8
g9
NtRp594
(dp595
g12
g13
sg14
S'Kartika'
p596
sg16
I400
sg17
g13
sg18
g13
sg19
S'C:\\Windows\\Fonts\\kartika.ttf'
p597
sg21
g22
sbag7
(g8
g9
NtRp598
(dp599
g12
g13
sg14
S'Vani'
p600
sg16
I400
sg17
g13
sg18
g13
sg19
S'c:\\windows\\fonts\\vani.ttf'
p601
sg21
g22
sbag7
(g8
g9
NtRp602
(dp603
g12
g13
sg14
S'DejaVu Serif'
p604
sg16
I400
sg17
g236
sg18
g13
sg19
S'c:\\windows\\fonts\\dejavuserifcondensed.ttf'
p605
sg21
g22
sbag7
(g8
g9
NtRp606
(dp607
g12
g13
sg14
S'DilleniaUPC'
p608
sg16
I400
sg17
g13
sg18
g13
sg19
S'c:\\windows\\fonts\\upcdl.ttf'
p609
sg21
g22
sbag7
(g8
g9
NtRp610
(dp611
g12
g13
sg14
S'LilyUPC'
p612
sg16
I700
sg17
g13
sg18
g13
sg19
S'C:\\Windows\\Fonts\\upclb.ttf'
p613
sg21
g22
sbag7
(g8
g9
NtRp614
(dp615
g12
g94
sg14
S'Gentium Basic'
p616
sg16
I400
sg17
g13
sg18
g13
sg19
S'C:\\Windows\\Fonts\\GenBasI.ttf'
p617
sg21
g22
sbag7
(g8
g9
NtRp618
(dp619
g12
g13
sg14
S'Lucida Sans Unicode'
p620
sg16
I400
sg17
g13
sg18
g13
sg19
S'C:\\Windows\\Fonts\\l_10646.ttf'
p621
sg21
g22
sbag7
(g8
g9
NtRp622
(dp623
g12
g89
sg14
S'DejaVu Sans Mono'
p624
sg16
I400
sg17
g13
sg18
g13
sg19
S'C:\\Windows\\Fonts\\DejaVuSansMono-Oblique.ttf'
p625
sg21
g22
sbag7
(g8
g9
NtRp626
(dp627
g12
g94
sg14
S'Liberation Sans'
p628
sg16
I700
sg17
g13
sg18
g13
sg19
S'C:\\Windows\\Fonts\\LiberationSans-BoldItalic.ttf'
p629
sg21
g22
sbag7
(g8
g9
NtRp630
(dp631
g12
g94
sg14
S'Aparajita'
p632
sg16
I700
sg17
g13
sg18
g13
sg19
S'c:\\windows\\fonts\\aparajbi.ttf'
p633
sg21
g22
sbag7
(g8
g9
NtRp634
(dp635
g12
g13
sg14
S'Ebrima'
p636
sg16
I700
sg17
g13
sg18
g13
sg19
S'c:\\windows\\fonts\\ebrimabd.ttf'
p637
sg21
g22
sbag7
(g8
g9
NtRp638
(dp639
g12
g13
sg14
S'Segoe Print'
p640
sg16
I400
sg17
g13
sg18
g13
sg19
S'C:\\Windows\\Fonts\\segoepr.ttf'
p641
sg21
g22
sbag7
(g8
g9
NtRp642
(dp643
g12
g13
sg14
S'Microsoft Sans Serif'
p644
sg16
I400
sg17
g13
sg18
g13
sg19
S'C:\\Windows\\Fonts\\micross.ttf'
p645
sg21
g22
sbag7
(g8
g9
NtRp646
(dp647
g12
g94
sg14
S'Kokila'
p648
sg16
I700
sg17
g13
sg18
g13
sg19
S'C:\\Windows\\Fonts\\kokilabi.ttf'
p649
sg21
g22
sbag7
(g8
g9
NtRp650
(dp651
g12
g13
sg14
S'Segoe Print'
p652
sg16
I700
sg17
g13
sg18
g13
sg19
S'C:\\Windows\\Fonts\\segoeprb.ttf'
p653
sg21
g22
sbag7
(g8
g9
NtRp654
(dp655
g12
g13
sg14
S'FreesiaUPC'
p656
sg16
I400
sg17
g13
sg18
g13
sg19
S'C:\\Windows\\Fonts\\upcfl.ttf'
p657
sg21
g22
sbag7
(g8
g9
NtRp658
(dp659
g12
g13
sg14
S'Miriam Fixed'
p660
sg16
I400
sg17
g13
sg18
g13
sg19
S'c:\\windows\\fonts\\mriamc.ttf'
p661
sg21
g22
sbag7
(g8
g9
NtRp662
(dp663
g12
g94
sg14
S'IrisUPC'
p664
sg16
I400
sg17
g13
sg18
g13
sg19
S'c:\\windows\\fonts\\upcii.ttf'
p665
sg21
g22
sbag7
(g8
g9
NtRp666
(dp667
g12
g13
sg14
S'DejaVu Serif'
p668
sg16
I400
sg17
g13
sg18
g13
sg19
S'C:\\Windows\\Fonts\\DejaVuSerif.ttf'
p669
sg21
g22
sbag7
(g8
g9
NtRp670
(dp671
g12
g94
sg14
S'Cordia New'
p672
sg16
I700
sg17
g13
sg18
g13
sg19
S'C:\\Windows\\Fonts\\cordiaz.ttf'
p673
sg21
g22
sbag7
(g8
g9
NtRp674
(dp675
g12
g13
sg14
S'Times New Roman'
p676
sg16
I500
sg17
g13
sg18
g13
sg19
S'c:\\windows\\fonts\\times.ttf'
p677
sg21
g22
sbag7
(g8
g9
NtRp678
(dp679
g12
g13
sg14
S'Consolas'
p680
sg16
I700
sg17
g13
sg18
g13
sg19
S'c:\\windows\\fonts\\consolab.ttf'
p681
sg21
g22
sbag7
(g8
g9
NtRp682
(dp683
g12
g13
sg14
S'DejaVu Sans'
p684
sg16
I400
sg17
g13
sg18
g13
sg19
S'c:\\windows\\fonts\\dejavusans.ttf'
p685
sg21
g22
sbag7
(g8
g9
NtRp686
(dp687
g12
g13
sg14
S'Vijaya'
p688
sg16
I700
sg17
g13
sg18
g13
sg19
S'c:\\windows\\fonts\\vijayab.ttf'
p689
sg21
g22
sbag7
(g8
g9
NtRp690
(dp691
g12
g89
sg14
S'DejaVu Sans'
p692
sg16
I400
sg17
g236
sg18
g13
sg19
S'C:\\Windows\\Fonts\\DejaVuSansCondensed-Oblique.ttf'
p693
sg21
g22
sbag7
(g8
g9
NtRp694
(dp695
g12
g94
sg14
S'Courier New'
p696
sg16
I400
sg17
g13
sg18
g13
sg19
S'c:\\windows\\fonts\\couri.ttf'
p697
sg21
g22
sbag7
(g8
g9
NtRp698
(dp699
g12
g13
sg14
S'Shruti'
p700
sg16
I700
sg17
g13
sg18
g13
sg19
S'C:\\Windows\\Fonts\\shrutib.ttf'
p701
sg21
g22
sbag7
(g8
g9
NtRp702
(dp703
g12
g94
sg14
S'CordiaUPC'
p704
sg16
I700
sg17
g13
sg18
g13
sg19
S'c:\\windows\\fonts\\cordiauz.ttf'
p705
sg21
g22
sbag7
(g8
g9
NtRp706
(dp707
g12
g13
sg14
S'Leelawadee'
p708
sg16
I400
sg17
g13
sg18
g13
sg19
S'c:\\windows\\fonts\\leelawad.ttf'
p709
sg21
g22
sbag7
(g8
g9
NtRp710
(dp711
g12
g13
sg14
S'Arial'
p712
sg16
I400
sg17
g13
sg18
g13
sg19
S'c:\\windows\\fonts\\arial.ttf'
p713
sg21
g22
sbag7
(g8
g9
NtRp714
(dp715
g12
g13
sg14
S'Shonar Bangla'
p716
sg16
I700
sg17
g13
sg18
g13
sg19
S'c:\\windows\\fonts\\shonarb.ttf'
p717
sg21
g22
sbag7
(g8
g9
NtRp718
(dp719
g12
g13
sg14
S'Vani'
p720
sg16
I400
sg17
g13
sg18
g13
sg19
S'C:\\Windows\\Fonts\\Vani.ttf'
p721
sg21
g22
sbag7
(g8
g9
NtRp722
(dp723
g12
g13
sg14
S'DejaVu Sans Mono'
p724
sg16
I700
sg17
g13
sg18
g13
sg19
S'c:\\windows\\fonts\\dejavusansmono-bold.ttf'
p725
sg21
g22
sbag7
(g8
g9
NtRp726
(dp727
g12
g94
sg14
S'Linux Biolinum G'
p728
sg16
I400
sg17
g13
sg18
g13
sg19
S'C:\\Windows\\Fonts\\LinBiolinum_RI_G.ttf'
p729
sg21
g22
sbag7
(g8
g9
NtRp730
(dp731
g12
g13
sg14
S'Traditional Arabic'
p732
sg16
I700
sg17
g13
sg18
g13
sg19
S'C:\\Windows\\Fonts\\tradbdo.ttf'
p733
sg21
g22
sbag7
(g8
g9
NtRp734
(dp735
g12
g94
sg14
S'DilleniaUPC'
p736
sg16
I700
sg17
g13
sg18
g13
sg19
S'c:\\windows\\fonts\\upcdbi.ttf'
p737
sg21
g22
sbag7
(g8
g9
NtRp738
(dp739
g12
g94
sg14
S'Kokila'
p740
sg16
I400
sg17
g13
sg18
g13
sg19
S'C:\\Windows\\Fonts\\kokilai.ttf'
p741
sg21
g22
sbag7
(g8
g9
NtRp742
(dp743
g12
g94
sg14
S'Palatino Linotype'
p744
sg16
I400
sg17
g13
sg18
g13
sg19
S'c:\\windows\\fonts\\palai.ttf'
p745
sg21
g22
sbag7
(g8
g9
NtRp746
(dp747
g12
g13
sg14
S'Liberation Sans Narrow'
p748
sg16
I400
sg17
g236
sg18
g13
sg19
S'C:\\Windows\\Fonts\\LiberationSansNarrow-Regular.ttf'
p749
sg21
g22
sbag7
(g8
g9
NtRp750
(dp751
g12
g13
sg14
S'Calibri'
p752
sg16
I700
sg17
g13
sg18
g13
sg19
S'c:\\windows\\fonts\\calibrib.ttf'
p753
sg21
g22
sbag7
(g8
g9
NtRp754
(dp755
g12
g13
sg14
S'JasmineUPC'
p756
sg16
I700
sg17
g13
sg18
g13
sg19
S'c:\\windows\\fonts\\upcjb.ttf'
p757
sg21
g22
sbag7
(g8
g9
NtRp758
(dp759
g12
g94
sg14
S'DejaVu Serif'
p760
sg16
I700
sg17
g13
sg18
g13
sg19
S'C:\\Windows\\Fonts\\DejaVuSerif-BoldItalic.ttf'
p761
sg21
g22
sbag7
(g8
g9
NtRp762
(dp763
g12
g13
sg14
S'David'
p764
sg16
I700
sg17
g13
sg18
g13
sg19
S'c:\\windows\\fonts\\davidbd.ttf'
p765
sg21
g22
sbag7
(g8
g9
NtRp766
(dp767
g12
g94
sg14
S'Constantia'
p768
sg16
I400
sg17
g13
sg18
g13
sg19
S'C:\\Windows\\Fonts\\constani.ttf'
p769
sg21
g22
sbag7
(g8
g9
NtRp770
(dp771
g12
g89
sg14
S'DejaVu Sans'
p772
sg16
I700
sg17
g236
sg18
g13
sg19
S'c:\\windows\\fonts\\dejavusanscondensed-boldoblique.ttf'
p773
sg21
g22
sbag7
(g8
g9
NtRp774
(dp775
g12
g13
sg14
S'Constantia'
p776
sg16
I400
sg17
g13
sg18
g13
sg19
S'c:\\windows\\fonts\\constan.ttf'
p777
sg21
g22
sbag7
(g8
g9
NtRp778
(dp779
g12
g13
sg14
S'Simplified Arabic Fixed'
p780
sg16
I400
sg17
g13
sg18
g13
sg19
S'c:\\windows\\fonts\\simpfxo.ttf'
p781
sg21
g22
sbag7
(g8
g9
NtRp782
(dp783
g12
g13
sg14
S'Mangal'
p784
sg16
I400
sg17
g13
sg18
g13
sg19
S'c:\\windows\\fonts\\mangal.ttf'
p785
sg21
g22
sbag7
(g8
g9
NtRp786
(dp787
g12
g13
sg14
S'Trebuchet MS'
p788
sg16
I400
sg17
g13
sg18
g13
sg19
S'c:\\windows\\fonts\\trebuc.ttf'
p789
sg21
g22
sbag7
(g8
g9
NtRp790
(dp791
g12
g13
sg14
S'SimHei'
p792
sg16
I400
sg17
g13
sg18
g13
sg19
S'c:\\windows\\fonts\\simhei.ttf'
p793
sg21
g22
sbag7
(g8
g9
NtRp794
(dp795
g12
g13
sg14
S'Lao UI'
p796
sg16
I400
sg17
g13
sg18
g13
sg19
S'c:\\windows\\fonts\\laoui.ttf'
p797
sg21
g22
sbag7
(g8
g9
NtRp798
(dp799
g12
g94
sg14
S'Cambria'
p800
sg16
I400
sg17
g13
sg18
g13
sg19
S'c:\\windows\\fonts\\cambriai.ttf'
p801
sg21
g22
sbag7
(g8
g9
NtRp802
(dp803
g12
g94
sg14
S'Liberation Mono'
p804
sg16
I700
sg17
g13
sg18
g13
sg19
S'C:\\Windows\\Fonts\\LiberationMono-BoldItalic.ttf'
p805
sg21
g22
sbag7
(g8
g9
NtRp806
(dp807
g12
g94
sg14
S'BrowalliaUPC'
p808
sg16
I400
sg17
g13
sg18
g13
sg19
S'C:\\Windows\\Fonts\\browaui.ttf'
p809
sg21
g22
sbag7
(g8
g9
NtRp810
(dp811
g12
g13
sg14
S'DaunPenh'
p812
sg16
I400
sg17
g13
sg18
g13
sg19
S'c:\\windows\\fonts\\daunpenh.ttf'
p813
sg21
g22
sbag7
(g8
g9
NtRp814
(dp815
g12
g13
sg14
S'Candara'
p816
sg16
I700
sg17
g13
sg18
g13
sg19
S'C:\\Windows\\Fonts\\Candarab.ttf'
p817
sg21
g22
sbag7
(g8
g9
NtRp818
(dp819
g12
g13
sg14
S'Arial'
p820
sg16
I900
sg17
g13
sg18
g13
sg19
S'C:\\Windows\\Fonts\\ariblk.ttf'
p821
sg21
g22
sbag7
(g8
g9
NtRp822
(dp823
g12
g13
sg14
S'Corbel'
p824
sg16
I400
sg17
g13
sg18
g13
sg19
S'C:\\Windows\\Fonts\\corbel.ttf'
p825
sg21
g22
sbag7
(g8
g9
NtRp826
(dp827
g12
g13
sg14
S'Gautami'
p828
sg16
I400
sg17
g13
sg18
g13
sg19
S'C:\\Windows\\Fonts\\gautami.ttf'
p829
sg21
g22
sbag7
(g8
g9
NtRp830
(dp831
g12
g13
sg14
S'Liberation Sans'
p832
sg16
I400
sg17
g13
sg18
g13
sg19
S'C:\\Windows\\Fonts\\LiberationSans-Regular.ttf'
p833
sg21
g22
sbag7
(g8
g9
NtRp834
(dp835
g12
g13
sg14
S'Microsoft Yi Baiti'
p836
sg16
I400
sg17
g13
sg18
g13
sg19
S'C:\\Windows\\Fonts\\msyi.ttf'
p837
sg21
g22
sbag7
(g8
g9
NtRp838
(dp839
g12
g94
sg14
S'DejaVu Serif'
p840
sg16
I400
sg17
g236
sg18
g13
sg19
S'c:\\windows\\fonts\\dejavuserifcondensed-italic.ttf'
p841
sg21
g22
sbag7
(g8
g9
NtRp842
(dp843
g12
g13
sg14
S'Levenim MT'
p844
sg16
I400
sg17
g13
sg18
g13
sg19
S'C:\\Windows\\Fonts\\lvnm.ttf'
p845
sg21
g22
sbag7
(g8
g9
NtRp846
(dp847
g12
g13
sg14
S'DilleniaUPC'
p848
sg16
I700
sg17
g13
sg18
g13
sg19
S'c:\\windows\\fonts\\upcdb.ttf'
p849
sg21
g22
sbag7
(g8
g9
NtRp850
(dp851
g12
g13
sg14
S'DejaVu Serif'
p852
sg16
I700
sg17
g236
sg18
g13
sg19
S'C:\\Windows\\Fonts\\DejaVuSerifCondensed-Bold.ttf'
p853
sg21
g22
sbag7
(g8
g9
NtRp854
(dp855
g12
g13
sg14
S'Narkisim'
p856
sg16
I400
sg17
g13
sg18
g13
sg19
S'C:\\Windows\\Fonts\\nrkis.ttf'
p857
sg21
g22
sbag7
(g8
g9
NtRp858
(dp859
g12
g13
sg14
S'Liberation Mono'
p860
sg16
I700
sg17
g13
sg18
g13
sg19
S'C:\\Windows\\Fonts\\LiberationMono-Bold.ttf'
p861
sg21
g22
sbag7
(g8
g9
NtRp862
(dp863
g12
g13
sg14
S'Verdana'
p864
sg16
I700
sg17
g13
sg18
g13
sg19
S'c:\\windows\\fonts\\verdanab.ttf'
p865
sg21
g22
sbag7
(g8
g9
NtRp866
(dp867
g12
g94
sg14
S'Liberation Sans Narrow'
p868
sg16
I700
sg17
g236
sg18
g13
sg19
S'C:\\Windows\\Fonts\\LiberationSansNarrow-BoldItalic.ttf'
p869
sg21
g22
sbag7
(g8
g9
NtRp870
(dp871
g12
g94
sg14
S'Courier New'
p872
sg16
I700
sg17
g13
sg18
g13
sg19
S'c:\\windows\\fonts\\courbi.ttf'
p873
sg21
g22
sbag7
(g8
g9
NtRp874
(dp875
g12
g13
sg14
S'Gentium Book Basic'
p876
sg16
I400
sg17
g13
sg18
g13
sg19
S'C:\\Windows\\Fonts\\GenBkBasR.ttf'
p877
sg21
g22
sbag7
(g8
g9
NtRp878
(dp879
g12
g13
sg14
S'Microsoft PhagsPa'
p880
sg16
I400
sg17
g13
sg18
g13
sg19
S'c:\\windows\\fonts\\phagspa.ttf'
p881
sg21
g22
sbag7
(g8
g9
NtRp882
(dp883
g12
g94
sg14
S'DejaVu Serif'
p884
sg16
I700
sg17
g236
sg18
g13
sg19
S'C:\\Windows\\Fonts\\DejaVuSerifCondensed-BoldItalic.ttf'
p885
sg21
g22
sbag7
(g8
g9
NtRp886
(dp887
g12
g13
sg14
S'IrisUPC'
p888
sg16
I700
sg17
g13
sg18
g13
sg19
S'C:\\Windows\\Fonts\\upcib.ttf'
p889
sg21
g22
sbag7
(g8
g9
NtRp890
(dp891
g12
g94
sg14
S'DejaVu Serif'
p892
sg16
I400
sg17
g13
sg18
g13
sg19
S'c:\\windows\\fonts\\dejavuserif-italic.ttf'
p893
sg21
g22
sbag7
(g8
g9
NtRp894
(dp895
g12
g89
sg14
S'DejaVu Sans Mono'
p896
sg16
I700
sg17
g13
sg18
g13
sg19
S'c:\\windows\\fonts\\dejavusansmono-boldoblique.ttf'
p897
sg21
g22
sbag7
(g8
g9
NtRp898
(dp899
g12
g13
sg14
S'Angsana New'
p900
sg16
I400
sg17
g13
sg18
g13
sg19
S'C:\\Windows\\Fonts\\angsa.ttf'
p901
sg21
g22
sbag7
(g8
g9
NtRp902
(dp903
g12
g13
sg14
S'Angsana New'
p904
sg16
I700
sg17
g13
sg18
g13
sg19
S'C:\\Windows\\Fonts\\angsab.ttf'
p905
sg21
g22
sbag7
(g8
g9
NtRp906
(dp907
g12
g13
sg14
S'Segoe UI'
p908
sg16
I700
sg17
g13
sg18
g13
sg19
S'C:\\Windows\\Fonts\\segoeuib.ttf'
p909
sg21
g22
sbag7
(g8
g9
NtRp910
(dp911
g12
g13
sg14
S'Ebrima'
p912
sg16
I400
sg17
g13
sg18
g13
sg19
S'C:\\Windows\\Fonts\\ebrima.ttf'
p913
sg21
g22
sbag7
(g8
g9
NtRp914
(dp915
g12
g94
sg14
S'Candara'
p916
sg16
I700
sg17
g13
sg18
g13
sg19
S'C:\\Windows\\Fonts\\Candaraz.ttf'
p917
sg21
g22
sbag7
(g8
g9
NtRp918
(dp919
g12
g94
sg14
S'Linux Libertine G'
p920
sg16
I700
sg17
g13
sg18
g13
sg19
S'c:\\windows\\fonts\\linlibertine_rzi_g.ttf'
p921
sg21
g22
sbag7
(g8
g9
NtRp922
(dp923
g12
g13
sg14
S'Malgun Gothic'
p924
sg16
I400
sg17
g13
sg18
g13
sg19
S'C:\\Windows\\Fonts\\malgun.ttf'
p925
sg21
g22
sbag7
(g8
g9
NtRp926
(dp927
g12
g94
sg14
S'Liberation Sans'
p928
sg16
I700
sg17
g13
sg18
g13
sg19
S'c:\\windows\\fonts\\liberationsans-bolditalic.ttf'
p929
sg21
g22
sbag7
(g8
g9
NtRp930
(dp931
g12
g94
sg14
S'Consolas'
p932
sg16
I400
sg17
g13
sg18
g13
sg19
S'C:\\Windows\\Fonts\\consolai.ttf'
p933
sg21
g22
sbag7
(g8
g9
NtRp934
(dp935
g12
g13
sg14
S'Traditional Arabic'
p936
sg16
I400
sg17
g13
sg18
g13
sg19
S'c:\\windows\\fonts\\trado.ttf'
p937
sg21
g22
sbag7
(g8
g9
NtRp938
(dp939
g12
g13
sg14
S'BrowalliaUPC'
p940
sg16
I700
sg17
g13
sg18
g13
sg19
S'c:\\windows\\fonts\\browaub.ttf'
p941
sg21
g22
sbag7
(g8
g9
NtRp942
(dp943
g12
g94
sg14
S'Linux Libertine G'
p944
sg16
I700
sg17
g13
sg18
g13
sg19
S'c:\\windows\\fonts\\linlibertine_rbi_g.ttf'
p945
sg21
g22
sbag7
(g8
g9
NtRp946
(dp947
g12
g13
sg14
S'Microsoft Uighur'
p948
sg16
I400
sg17
g13
sg18
g13
sg19
S'C:\\Windows\\Fonts\\msuighur.ttf'
p949
sg21
g22
sbag7
(g8
g9
NtRp950
(dp951
g12
g13
sg14
S'Linux Biolinum G'
p952
sg16
I700
sg17
g13
sg18
g13
sg19
S'c:\\windows\\fonts\\linbiolinum_rb_g.ttf'
p953
sg21
g22
sbag7
(g8
g9
NtRp954
(dp955
g12
g13
sg14
S'Courier New'
p956
sg16
I700
sg17
g13
sg18
g13
sg19
S'C:\\Windows\\Fonts\\courbd.ttf'
p957
sg21
g22
sbag7
(g8
g9
NtRp958
(dp959
g12
g94
sg14
S'Times New Roman'
p960
sg16
I700
sg17
g13
sg18
g13
sg19
S'C:\\Windows\\Fonts\\timesbi.ttf'
p961
sg21
g22
sbag7
(g8
g9
NtRp962
(dp963
g12
g13
sg14
S'Gisha'
p964
sg16
I400
sg17
g13
sg18
g13
sg19
S'c:\\windows\\fonts\\gisha.ttf'
p965
sg21
g22
sbag7
(g8
g9
NtRp966
(dp967
g12
g94
sg14
S'Linux Libertine G'
p968
sg16
I400
sg17
g13
sg18
g13
sg19
S'c:\\windows\\fonts\\linlibertine_ri_g.ttf'
p969
sg21
g22
sbag7
(g8
g9
NtRp970
(dp971
g12
g13
sg14
S'Aparajita'
p972
sg16
I700
sg17
g13
sg18
g13
sg19
S'C:\\Windows\\Fonts\\aparajb.ttf'
p973
sg21
g22
sbag7
(g8
g9
NtRp974
(dp975
g12
g94
sg14
S'Arial'
p976
sg16
I700
sg17
g13
sg18
g13
sg19
S'c:\\windows\\fonts\\arialbi.ttf'
p977
sg21
g22
sbag7
(g8
g9
NtRp978
(dp979
g12
g94
sg14
S'Trebuchet MS'
p980
sg16
I400
sg17
g13
sg18
g13
sg19
S'c:\\windows\\fonts\\trebucit.ttf'
p981
sg21
g22
sbag7
(g8
g9
NtRp982
(dp983
g12
g13
sg14
S'Linux Libertine G'
p984
sg16
I700
sg17
g13
sg18
g13
sg19
S'c:\\windows\\fonts\\linlibertine_rb_g.ttf'
p985
sg21
g22
sbag7
(g8
g9
NtRp986
(dp987
g12
g13
sg14
S'SimSun-ExtB'
p988
sg16
I400
sg17
g13
sg18
g13
sg19
S'c:\\windows\\fonts\\simsunb.ttf'
p989
sg21
g22
sbag7
(g8
g9
NtRp990
(dp991
g12
g94
sg14
S'Liberation Serif'
p992
sg16
I400
sg17
g13
sg18
g13
sg19
S'c:\\windows\\fonts\\liberationserif-italic.ttf'
p993
sg21
g22
sbag7
(g8
g9
NtRp994
(dp995
g12
g13
sg14
S'Liberation Sans'
p996
sg16
I700
sg17
g13
sg18
g13
sg19
S'c:\\windows\\fonts\\liberationsans-bold.ttf'
p997
sg21
g22
sbag7
(g8
g9
NtRp998
(dp999
g12
g13
sg14
S'Linux Libertine G'
p1000
sg16
I700
sg17
g13
sg18
g13
sg19
S'C:\\Windows\\Fonts\\LinLibertine_RB_G.ttf'
p1001
sg21
g22
sbag7
(g8
g9
NtRp1002
(dp1003
g12
g13
sg14
S'Miriam'
p1004
sg16
I400
sg17
g13
sg18
g13
sg19
S'c:\\windows\\fonts\\mriam.ttf'
p1005
sg21
g22
sbag7
(g8
g9
NtRp1006
(dp1007
g12
g13
sg14
S'Comic Sans MS'
p1008
sg16
I700
sg17
g13
sg18
g13
sg19
S'c:\\windows\\fonts\\comicbd.ttf'
p1009
sg21
g22
sbag7
(g8
g9
NtRp1010
(dp1011
g12
g13
sg14
S'Candara'
p1012
sg16
I700
sg17
g13
sg18
g13
sg19
S'c:\\windows\\fonts\\candarab.ttf'
p1013
sg21
g22
sbag7
(g8
g9
NtRp1014
(dp1015
g12
g94
sg14
S'Georgia'
p1016
sg16
I700
sg17
g13
sg18
g13
sg19
S'C:\\Windows\\Fonts\\georgiaz.ttf'
p1017
sg21
g22
sbag7
(g8
g9
NtRp1018
(dp1019
g12
g13
sg14
S'Microsoft JhengHei'
p1020
sg16
I400
sg17
g13
sg18
g13
sg19
S'C:\\Windows\\Fonts\\msjh.ttf'
p1021
sg21
g22
sbag7
(g8
g9
NtRp1022
(dp1023
g12
g94
sg14
S'EucrosiaUPC'
p1024
sg16
I700
sg17
g13
sg18
g13
sg19
S'c:\\windows\\fonts\\upcebi.ttf'
p1025
sg21
g22
sbag7
(g8
g9
NtRp1026
(dp1027
g12
g13
sg14
S'Browallia New'
p1028
sg16
I400
sg17
g13
sg18
g13
sg19
S'C:\\Windows\\Fonts\\browa.ttf'
p1029
sg21
g22
sbag7
(g8
g9
NtRp1030
(dp1031
g12
g13
sg14
S'DejaVu Sans'
p1032
sg16
I400
sg17
g13
sg18
g13
sg19
S'C:\\Windows\\Fonts\\DejaVuSans.ttf'
p1033
sg21
g22
sbag7
(g8
g9
NtRp1034
(dp1035
g12
g94
sg14
S'Candara'
p1036
sg16
I400
sg17
g13
sg18
g13
sg19
S'c:\\windows\\fonts\\candarai.ttf'
p1037
sg21
g22
sbag7
(g8
g9
NtRp1038
(dp1039
g12
g13
sg14
S'EucrosiaUPC'
p1040
sg16
I700
sg17
g13
sg18
g13
sg19
S'c:\\windows\\fonts\\upceb.ttf'
p1041
sg21
g22
sbag7
(g8
g9
NtRp1042
(dp1043
g12
g13
sg14
S'DejaVu Sans Mono'
p1044
sg16
I700
sg17
g13
sg18
g13
sg19
S'C:\\Windows\\Fonts\\DejaVuSansMono-Bold.ttf'
p1045
sg21
g22
sbag7
(g8
g9
NtRp1046
(dp1047
g12
g13
sg14
S'Aparajita'
p1048
sg16
I400
sg17
g13
sg18
g13
sg19
S'c:\\windows\\fonts\\aparaj.ttf'
p1049
sg21
g22
sbag7
(g8
g9
NtRp1050
(dp1051
g12
g13
sg14
S'Liberation Serif'
p1052
sg16
I700
sg17
g13
sg18
g13
sg19
S'c:\\windows\\fonts\\liberationserif-bold.ttf'
p1053
sg21
g22
sbag7
(g8
g9
NtRp1054
(dp1055
g12
g13
sg14
S'Linux Biolinum G'
p1056
sg16
I400
sg17
g13
sg18
g13
sg19
S'c:\\windows\\fonts\\linbiolinum_r_g.ttf'
p1057
sg21
g22
sbag7
(g8
g9
NtRp1058
(dp1059
g12
g89
sg14
S'DejaVu Sans'
p1060
sg16
I400
sg17
g236
sg18
g13
sg19
S'c:\\windows\\fonts\\dejavusanscondensed-oblique.ttf'
p1061
sg21
g22
sbag7
(g8
g9
NtRp1062
(dp1063
g12
g94
sg14
S'Times New Roman'
p1064
sg16
I500
sg17
g13
sg18
g13
sg19
S'C:\\Windows\\Fonts\\timesi.ttf'
p1065
sg21
g22
sbag7
(g8
g9
NtRp1066
(dp1067
g12
g13
sg14
S'Gabriola'
p1068
sg16
I400
sg17
g13
sg18
g13
sg19
S'C:\\Windows\\Fonts\\Gabriola.ttf'
p1069
sg21
g22
sbag7
(g8
g9
NtRp1070
(dp1071
g12
g13
sg14
S'Iskoola Pota'
p1072
sg16
I400
sg17
g13
sg18
g13
sg19
S'c:\\windows\\fonts\\iskpota.ttf'
p1073
sg21
g22
sbag7
(g8
g9
NtRp1074
(dp1075
g12
g94
sg14
S'Candara'
p1076
sg16
I400
sg17
g13
sg18
g13
sg19
S'C:\\Windows\\Fonts\\Candarai.ttf'
p1077
sg21
g22
sbag7
(g8
g9
NtRp1078
(dp1079
g12
g94
sg14
S'Liberation Sans Narrow'
p1080
sg16
I700
sg17
g236
sg18
g13
sg19
S'c:\\windows\\fonts\\liberationsansnarrow-bolditalic.ttf'
p1081
sg21
g22
sbag7
(g8
g9
NtRp1082
(dp1083
g12
g94
sg14
S'Aparajita'
p1084
sg16
I400
sg17
g13
sg18
g13
sg19
S'c:\\windows\\fonts\\aparaji.ttf'
p1085
sg21
g22
sbag7
(g8
g9
NtRp1086
(dp1087
g12
g13
sg14
S'Kalinga'
p1088
sg16
I400
sg17
g13
sg18
g13
sg19
S'C:\\Windows\\Fonts\\kalinga.ttf'
p1089
sg21
g22
sbag7
(g8
g9
NtRp1090
(dp1091
g12
g13
sg14
S'Gentium Basic'
p1092
sg16
I400
sg17
g13
sg18
g13
sg19
S'C:\\Windows\\Fonts\\GenBasR.ttf'
p1093
sg21
g22
sbag7
(g8
g9
NtRp1094
(dp1095
g12
g94
sg14
S'Segoe UI'
p1096
sg16
I400
sg17
g13
sg18
g13
sg19
S'C:\\Windows\\Fonts\\segoeuii.ttf'
p1097
sg21
g22
sbag7
(g8
g9
NtRp1098
(dp1099
g12
g13
sg14
S'Candara'
p1100
sg16
I400
sg17
g13
sg18
g13
sg19
S'c:\\windows\\fonts\\candara.ttf'
p1101
sg21
g22
sbag7
(g8
g9
NtRp1102
(dp1103
g12
g13
sg14
S'MV Boli'
p1104
sg16
I400
sg17
g13
sg18
g13
sg19
S'C:\\Windows\\Fonts\\mvboli.ttf'
p1105
sg21
g22
sbag7
(g8
g9
NtRp1106
(dp1107
g12
g13
sg14
S'Vijaya'
p1108
sg16
I400
sg17
g13
sg18
g13
sg19
S'c:\\windows\\fonts\\vijaya.ttf'
p1109
sg21
g22
sbag7
(g8
g9
NtRp1110
(dp1111
g12
g94
sg14
S'Cordia New'
p1112
sg16
I400
sg17
g13
sg18
g13
sg19
S'C:\\Windows\\Fonts\\cordiai.ttf'
p1113
sg21
g22
sbag7
(g8
g9
NtRp1114
(dp1115
g12
g13
sg14
S'Tunga'
p1116
sg16
I700
sg17
g13
sg18
g13
sg19
S'C:\\Windows\\Fonts\\tungab.ttf'
p1117
sg21
g22
sbag7
(g8
g9
NtRp1118
(dp1119
g12
g13
sg14
S'Sakkal Majalla'
p1120
sg16
I700
sg17
g13
sg18
g13
sg19
S'C:\\Windows\\Fonts\\majallab.ttf'
p1121
sg21
g22
sbag7
(g8
g9
NtRp1122
(dp1123
g12
g13
sg14
S'JasmineUPC'
p1124
sg16
I400
sg17
g13
sg18
g13
sg19
S'c:\\windows\\fonts\\upcjl.ttf'
p1125
sg21
g22
sbag7
(g8
g9
NtRp1126
(dp1127
g12
g13
sg14
S'Shonar Bangla'
p1128
sg16
I400
sg17
g13
sg18
g13
sg19
S'C:\\Windows\\Fonts\\Shonar.ttf'
p1129
sg21
g22
sbag7
(g8
g9
NtRp1130
(dp1131
g12
g13
sg14
S'Gentium Basic'
p1132
sg16
I400
sg17
g13
sg18
g13
sg19
S'c:\\windows\\fonts\\genbasr.ttf'
p1133
sg21
g22
sbag7
(g8
g9
NtRp1134
(dp1135
g12
g13
sg14
S'Segoe UI'
p1136
sg16
I400
sg17
g13
sg18
g13
sg19
S'C:\\Windows\\Fonts\\segoeuil.ttf'
p1137
sg21
g22
sbag7
(g8
g9
NtRp1138
(dp1139
g12
g94
sg14
S'Corbel'
p1140
sg16
I700
sg17
g13
sg18
g13
sg19
S'C:\\Windows\\Fonts\\corbelz.ttf'
p1141
sg21
g22
sbag7
(g8
g9
NtRp1142
(dp1143
g12
g13
sg14
S'Segoe Script'
p1144
sg16
I700
sg17
g13
sg18
g13
sg19
S'c:\\windows\\fonts\\segoescb.ttf'
p1145
sg21
g22
sbag7
(g8
g9
NtRp1146
(dp1147
g12
g94
sg14
S'DejaVu Serif'
p1148
sg16
I700
sg17
g236
sg18
g13
sg19
S'c:\\windows\\fonts\\dejavuserifcondensed-bolditalic.ttf'
p1149
sg21
g22
sbag7
(g8
g9
NtRp1150
(dp1151
g12
g13
sg14
S'Comic Sans MS'
p1152
sg16
I400
sg17
g13
sg18
g13
sg19
S'C:\\Windows\\Fonts\\comic.ttf'
p1153
sg21
g22
sbag7
(g8
g9
NtRp1154
(dp1155
g12
g13
sg14
S'Shruti'
p1156
sg16
I400
sg17
g13
sg18
g13
sg19
S'C:\\Windows\\Fonts\\shruti.ttf'
p1157
sg21
g22
sbag7
(g8
g9
NtRp1158
(dp1159
g12
g13
sg14
S'DejaVu Sans Mono'
p1160
sg16
I400
sg17
g13
sg18
g13
sg19
S'c:\\windows\\fonts\\dejavusansmono.ttf'
p1161
sg21
g22
sbag7
(g8
g9
NtRp1162
(dp1163
g12
g13
sg14
S'Palatino Linotype'
p1164
sg16
I700
sg17
g13
sg18
g13
sg19
S'c:\\windows\\fonts\\palab.ttf'
p1165
sg21
g22
sbag7
(g8
g9
NtRp1166
(dp1167
g12
g94
sg14
S'Liberation Serif'
p1168
sg16
I700
sg17
g13
sg18
g13
sg19
S'C:\\Windows\\Fonts\\LiberationSerif-BoldItalic.ttf'
p1169
sg21
g22
sbag7
(g8
g9
NtRp1170
(dp1171
g12
g94
sg14
S'Utsaah'
p1172
sg16
I700
sg17
g13
sg18
g13
sg19
S'C:\\Windows\\Fonts\\utsaahbi.ttf'
p1173
sg21
g22
sbag7
(g8
g9
NtRp1174
(dp1175
g12
g94
sg14
S'LilyUPC'
p1176
sg16
I700
sg17
g13
sg18
g13
sg19
S'c:\\windows\\fonts\\upclbi.ttf'
p1177
sg21
g22
sbag7
(g8
g9
NtRp1178
(dp1179
g12
g13
sg14
S'Liberation Serif'
p1180
sg16
I700
sg17
g13
sg18
g13
sg19
S'C:\\Windows\\Fonts\\LiberationSerif-Bold.ttf'
p1181
sg21
g22
sbag7
(g8
g9
NtRp1182
(dp1183
g12
g13
sg14
S'FrankRuehl'
p1184
sg16
I400
sg17
g13
sg18
g13
sg19
S'c:\\windows\\fonts\\frank.ttf'
p1185
sg21
g22
sbag7
(g8
g9
NtRp1186
(dp1187
g12
g13
sg14
S'Raavi'
p1188
sg16
I700
sg17
g13
sg18
g13
sg19
S'C:\\Windows\\Fonts\\raavib.ttf'
p1189
sg21
g22
sbag7
(g8
g9
NtRp1190
(dp1191
g12
g94
sg14
S'Liberation Serif'
p1192
sg16
I400
sg17
g13
sg18
g13
sg19
S'C:\\Windows\\Fonts\\LiberationSerif-Italic.ttf'
p1193
sg21
g22
sbag7
(g8
g9
NtRp1194
(dp1195
g12
g94
sg14
S'Liberation Mono'
p1196
sg16
I400
sg17
g13
sg18
g13
sg19
S'c:\\windows\\fonts\\liberationmono-italic.ttf'
p1197
sg21
g22
sbag7
(g8
g9
NtRp1198
(dp1199
g12
g94
sg14
S'Liberation Sans'
p1200
sg16
I400
sg17
g13
sg18
g13
sg19
S'c:\\windows\\fonts\\liberationsans-italic.ttf'
p1201
sg21
g22
sbag7
(g8
g9
NtRp1202
(dp1203
g12
g13
sg14
S'Liberation Mono'
p1204
sg16
I700
sg17
g13
sg18
g13
sg19
S'c:\\windows\\fonts\\liberationmono-bold.ttf'
p1205
sg21
g22
sbag7
(g8
g9
NtRp1206
(dp1207
g12
g13
sg14
S'Microsoft New Tai Lue'
p1208
sg16
I400
sg17
g13
sg18
g13
sg19
S'C:\\Windows\\Fonts\\ntailu.ttf'
p1209
sg21
g22
sbag7
(g8
g9
NtRp1210
(dp1211
g12
g94
sg14
S'LilyUPC'
p1212
sg16
I400
sg17
g13
sg18
g13
sg19
S'C:\\Windows\\Fonts\\upcli.ttf'
p1213
sg21
g22
sbag7
(g8
g9
NtRp1214
(dp1215
g12
g13
sg14
S'DejaVu Sans'
p1216
sg16
I700
sg17
g13
sg18
g13
sg19
S'C:\\Windows\\Fonts\\DejaVuSans-Bold.ttf'
p1217
sg21
g22
sbag7
(g8
g9
NtRp1218
(dp1219
g12
g94
sg14
S'Consolas'
p1220
sg16
I700
sg17
g13
sg18
g13
sg19
S'c:\\windows\\fonts\\consolaz.ttf'
p1221
sg21
g22
sbag7
(g8
g9
NtRp1222
(dp1223
g12
g94
sg14
S'EucrosiaUPC'
p1224
sg16
I400
sg17
g13
sg18
g13
sg19
S'c:\\windows\\fonts\\upcei.ttf'
p1225
sg21
g22
sbag7
(g8
g9
NtRp1226
(dp1227
g12
g13
sg14
S'KodchiangUPC'
p1228
sg16
I700
sg17
g13
sg18
g13
sg19
S'c:\\windows\\fonts\\upckb.ttf'
p1229
sg21
g22
sbag7
(g8
g9
NtRp1230
(dp1231
g12
g13
sg14
S'Linux Libertine G'
p1232
sg16
I700
sg17
g13
sg18
g13
sg19
S'c:\\windows\\fonts\\linlibertine_rz_g.ttf'
p1233
sg21
g22
sbag7
(g8
g9
NtRp1234
(dp1235
g12
g13
sg14
S'Vani'
p1236
sg16
I700
sg17
g13
sg18
g13
sg19
S'C:\\Windows\\Fonts\\Vanib.ttf'
p1237
sg21
g22
sbag7
(g8
g9
NtRp1238
(dp1239
g12
g13
sg14
S'Liberation Serif'
p1240
sg16
I400
sg17
g13
sg18
g13
sg19
S'C:\\Windows\\Fonts\\LiberationSerif-Regular.ttf'
p1241
sg21
g22
sbag7
(g8
g9
NtRp1242
(dp1243
g12
g13
sg14
S'Liberation Mono'
p1244
sg16
I400
sg17
g13
sg18
g13
sg19
S'c:\\windows\\fonts\\liberationmono-regular.ttf'
p1245
sg21
g22
sbag7
(g8
g9
NtRp1246
(dp1247
g12
g94
sg14
S'Linux Libertine G'
p1248
sg16
I400
sg17
g13
sg18
g13
sg19
S'C:\\Windows\\Fonts\\LinLibertine_RI_G.ttf'
p1249
sg21
g22
sbag7
(g8
g9
NtRp1250
(dp1251
g12
g94
sg14
S'Corbel'
p1252
sg16
I400
sg17
g13
sg18
g13
sg19
S'C:\\Windows\\Fonts\\corbeli.ttf'
p1253
sg21
g22
sbag7
(g8
g9
NtRp1254
(dp1255
g12
g94
sg14
S'DejaVu Serif'
p1256
sg16
I700
sg17
g13
sg18
g13
sg19
S'c:\\windows\\fonts\\dejavuserif-bolditalic.ttf'
p1257
sg21
g22
sbag7
(g8
g9
NtRp1258
(dp1259
g12
g13
sg14
S'Gisha'
p1260
sg16
I700
sg17
g13
sg18
g13
sg19
S'C:\\Windows\\Fonts\\gishabd.ttf'
p1261
sg21
g22
sbag7
(g8
g9
NtRp1262
(dp1263
g12
g13
sg14
S'DejaVu Serif'
p1264
sg16
I400
sg17
g236
sg18
g13
sg19
S'C:\\Windows\\Fonts\\DejaVuSerifCondensed.ttf'
p1265
sg21
g22
sbag7
(g8
g9
NtRp1266
(dp1267
g12
g13
sg14
S'Estrangelo Edessa'
p1268
sg16
I400
sg17
g13
sg18
g13
sg19
S'C:\\Windows\\Fonts\\estre.ttf'
p1269
sg21
g22
sbag7
(g8
g9
NtRp1270
(dp1271
g12
g13
sg14
S'Nyala'
p1272
sg16
I400
sg17
g13
sg18
g13
sg19
S'c:\\windows\\fonts\\nyala.ttf'
p1273
sg21
g22
sbag7
(g8
g9
NtRp1274
(dp1275
g12
g13
sg14
S'CordiaUPC'
p1276
sg16
I700
sg17
g13
sg18
g13
sg19
S'c:\\windows\\fonts\\cordiaub.ttf'
p1277
sg21
g22
sbag7
(g8
g9
NtRp1278
(dp1279
g12
g13
sg14
S'DejaVu Sans'
p1280
sg16
I400
sg17
g236
sg18
g13
sg19
S'C:\\Windows\\Fonts\\DejaVuSansCondensed.ttf'
p1281
sg21
g22
sbag7
(g8
g9
NtRp1282
(dp1283
g12
g94
sg14
S'Gentium Basic'
p1284
sg16
I400
sg17
g13
sg18
g13
sg19
S'c:\\windows\\fonts\\genbasi.ttf'
p1285
sg21
g22
sbag7
(g8
g9
NtRp1286
(dp1287
g12
g13
sg14
S'Segoe Script'
p1288
sg16
I400
sg17
g13
sg18
g13
sg19
S'C:\\Windows\\Fonts\\segoesc.ttf'
p1289
sg21
g22
sbag7
(g8
g9
NtRp1290
(dp1291
g12
g13
sg14
S'Georgia'
p1292
sg16
I400
sg17
g13
sg18
g13
sg19
S'C:\\Windows\\Fonts\\georgia.ttf'
p1293
sg21
g22
sbag7
(g8
g9
NtRp1294
(dp1295
g12
g13
sg14
S'Linux Biolinum G'
p1296
sg16
I400
sg17
g13
sg18
g13
sg19
S'C:\\Windows\\Fonts\\LinBiolinum_R_G.ttf'
p1297
sg21
g22
sbag7
(g8
g9
NtRp1298
(dp1299
g12
g13
sg14
S'AngsanaUPC'
p1300
sg16
I700
sg17
g13
sg18
g13
sg19
S'C:\\Windows\\Fonts\\angsaub.ttf'
p1301
sg21
g22
sbag7
(g8
g9
NtRp1302
(dp1303
g12
g13
sg14
S'Lao UI'
p1304
sg16
I700
sg17
g13
sg18
g13
sg19
S'C:\\Windows\\Fonts\\LaoUIb.ttf'
p1305
sg21
g22
sbag7
(g8
g9
NtRp1306
(dp1307
g12
g94
sg14
S'CordiaUPC'
p1308
sg16
I400
sg17
g13
sg18
g13
sg19
S'c:\\windows\\fonts\\cordiaui.ttf'
p1309
sg21
g22
sbag7
(g8
g9
NtRp1310
(dp1311
g12
g13
sg14
S'Shonar Bangla'
p1312
sg16
I700
sg17
g13
sg18
g13
sg19
S'C:\\Windows\\Fonts\\Shonarb.ttf'
p1313
sg21
g22
sbag7
(g8
g9
NtRp1314
(dp1315
g12
g13
sg14
S'Webdings'
p1316
sg16
I400
sg17
g13
sg18
g13
sg19
S'C:\\Windows\\Fonts\\webdings.ttf'
p1317
sg21
g22
sbag7
(g8
g9
NtRp1318
(dp1319
g12
g13
sg14
S'David'
p1320
sg16
I400
sg17
g13
sg18
g13
sg19
S'c:\\windows\\fonts\\david.ttf'
p1321
sg21
g22
sbag7
(g8
g9
NtRp1322
(dp1323
g12
g94
sg14
S'Calibri'
p1324
sg16
I200
sg17
g13
sg18
g13
sg19
S'C:\\Windows\\Fonts\\calibrili.ttf'
p1325
sg21
g22
sbag7
(g8
g9
NtRp1326
(dp1327
g12
g13
sg14
S'DejaVu Serif'
p1328
sg16
I400
sg17
g13
sg18
g13
sg19
S'c:\\windows\\fonts\\dejavuserif.ttf'
p1329
sg21
g22
sbag7
(g8
g9
NtRp1330
(dp1331
g12
g94
sg14
S'Gentium Book Basic'
p1332
sg16
I400
sg17
g13
sg18
g13
sg19
S'C:\\Windows\\Fonts\\GenBkBasI.ttf'
p1333
sg21
g22
sbag7
(g8
g9
NtRp1334
(dp1335
g12
g13
sg14
S'Andalus'
p1336
sg16
I400
sg17
g13
sg18
g13
sg19
S'C:\\Windows\\Fonts\\andlso.ttf'
p1337
sg21
g22
sbag7
(g8
g9
NtRp1338
(dp1339
g12
g13
sg14
S'Vani'
p1340
sg16
I700
sg17
g13
sg18
g13
sg19
S'c:\\windows\\fonts\\vanib.ttf'
p1341
sg21
g22
sbag7
(g8
g9
NtRp1342
(dp1343
g12
g13
sg14
S'Kokila'
p1344
sg16
I400
sg17
g13
sg18
g13
sg19
S'C:\\Windows\\Fonts\\kokila.ttf'
p1345
sg21
g22
sbag7
(g8
g9
NtRp1346
(dp1347
g12
g13
sg14
S'Verdana'
p1348
sg16
I400
sg17
g13
sg18
g13
sg19
S'C:\\Windows\\Fonts\\verdana.ttf'
p1349
sg21
g22
sbag7
(g8
g9
NtRp1350
(dp1351
g12
g13
sg14
S'Mongolian Baiti'
p1352
sg16
I400
sg17
g13
sg18
g13
sg19
S'c:\\windows\\fonts\\monbaiti.ttf'
p1353
sg21
g22
sbag7
(g8
g9
NtRp1354
(dp1355
g12
g13
sg14
S'Latha'
p1356
sg16
I700
sg17
g13
sg18
g13
sg19
S'C:\\Windows\\Fonts\\lathab.ttf'
p1357
sg21
g22
sbag7
(g8
g9
NtRp1358
(dp1359
g12
g13
sg14
S'Microsoft New Tai Lue'
p1360
sg16
I700
sg17
g13
sg18
g13
sg19
S'C:\\Windows\\Fonts\\ntailub.ttf'
p1361
sg21
g22
sbag7
(g8
g9
NtRp1362
(dp1363
g12
g94
sg14
S'Browallia New'
p1364
sg16
I700
sg17
g13
sg18
g13
sg19
S'c:\\windows\\fonts\\browaz.ttf'
p1365
sg21
g22
sbag7
(g8
g9
NtRp1366
(dp1367
g12
g13
sg14
S'CordiaUPC'
p1368
sg16
I400
sg17
g13
sg18
g13
sg19
S'c:\\windows\\fonts\\cordiau.ttf'
p1369
sg21
g22
sbag7
(g8
g9
NtRp1370
(dp1371
g12
g94
sg14
S'Liberation Serif'
p1372
sg16
I700
sg17
g13
sg18
g13
sg19
S'c:\\windows\\fonts\\liberationserif-bolditalic.ttf'
p1373
sg21
g22
sbag7
(g8
g9
NtRp1374
(dp1375
g12
g13
sg14
S'Gentium Basic'
p1376
sg16
I700
sg17
g13
sg18
g13
sg19
S'C:\\Windows\\Fonts\\GenBasB.ttf'
p1377
sg21
g22
sbag7
(g8
g9
NtRp1378
(dp1379
g12
g13
sg14
S'Tahoma'
p1380
sg16
I400
sg17
g13
sg18
g13
sg19
S'C:\\Windows\\Fonts\\tahoma.ttf'
p1381
sg21
g22
sbag7
(g8
g9
NtRp1382
(dp1383
g12
g13
sg14
S'Linux Biolinum G'
p1384
sg16
I700
sg17
g13
sg18
g13
sg19
S'C:\\Windows\\Fonts\\LinBiolinum_RB_G.ttf'
p1385
sg21
g22
sbag7
(g8
g9
NtRp1386
(dp1387
g12
g13
sg14
S'DejaVu Serif'
p1388
sg16
I700
sg17
g13
sg18
g13
sg19
S'C:\\Windows\\Fonts\\DejaVuSerif-Bold.ttf'
p1389
sg21
g22
sbag7
(g8
g9
NtRp1390
(dp1391
g12
g13
sg14
S'Linux Libertine G'
p1392
sg16
I700
sg17
g13
sg18
g13
sg19
S'C:\\Windows\\Fonts\\LinLibertine_RZ_G.ttf'
p1393
sg21
g22
sbag7
(g8
g9
NtRp1394
(dp1395
g12
g94
sg14
S'Angsana New'
p1396
sg16
I700
sg17
g13
sg18
g13
sg19
S'c:\\windows\\fonts\\angsaz.ttf'
p1397
sg21
g22
sbag7
(g8
g9
NtRp1398
(dp1399
g12
g13
sg14
S'Linux Libertine G'
p1400
sg16
I400
sg17
g13
sg18
g13
sg19
S'c:\\windows\\fonts\\linlibertine_r_g.ttf'
p1401
sg21
g22
sbag7
(g8
g9
NtRp1402
(dp1403
g12
g13
sg14
S'Liberation Sans'
p1404
sg16
I700
sg17
g13
sg18
g13
sg19
S'C:\\Windows\\Fonts\\LiberationSans-Bold.ttf'
p1405
sg21
g22
sbag7
(g8
g9
NtRp1406
(dp1407
g12
g13
sg14
S'Lao UI'
p1408
sg16
I400
sg17
g13
sg18
g13
sg19
S'C:\\Windows\\Fonts\\LaoUI.ttf'
p1409
sg21
g22
sbag7
(g8
g9
NtRp1410
(dp1411
g12
g89
sg14
S'DejaVu Sans'
p1412
sg16
I400
sg17
g13
sg18
g13
sg19
S'C:\\Windows\\Fonts\\DejaVuSans-Oblique.ttf'
p1413
sg21
g22
sbag7
(g8
g9
NtRp1414
(dp1415
g12
g13
sg14
S'DejaVu Sans'
p1416
sg16
I700
sg17
g13
sg18
g13
sg19
S'c:\\windows\\fonts\\dejavusans-bold.ttf'
p1417
sg21
g22
sbag7
(g8
g9
NtRp1418
(dp1419
g12
g94
sg14
S'DejaVu Serif'
p1420
sg16
I400
sg17
g236
sg18
g13
sg19
S'C:\\Windows\\Fonts\\DejaVuSerifCondensed-Italic.ttf'
p1421
sg21
g22
sbag7
(g8
g9
NtRp1422
(dp1423
g12
g89
sg14
S'DejaVu Sans'
p1424
sg16
I700
sg17
g13
sg18
g13
sg19
S'c:\\windows\\fonts\\dejavusans-boldoblique.ttf'
p1425
sg21
g22
sbag7
(g8
g9
NtRp1426
(dp1427
g12
g13
sg14
S'Lao UI'
p1428
sg16
I700
sg17
g13
sg18
g13
sg19
S'c:\\windows\\fonts\\laouib.ttf'
p1429
sg21
g22
sbag7
(g8
g9
NtRp1430
(dp1431
g12
g13
sg14
S'Palatino Linotype'
p1432
sg16
I400
sg17
g13
sg18
g13
sg19
S'c:\\windows\\fonts\\pala.ttf'
p1433
sg21
g22
sbag7
(g8
g9
NtRp1434
(dp1435
g12
g13
sg14
S'DejaVu Serif'
p1436
sg16
I700
sg17
g236
sg18
g13
sg19
S'c:\\windows\\fonts\\dejavuserifcondensed-bold.ttf'
p1437
sg21
g22
sbag7
(g8
g9
NtRp1438
(dp1439
g12
g13
sg14
S'Rod'
p1440
sg16
I400
sg17
g13
sg18
g13
sg19
S'c:\\windows\\fonts\\rod.ttf'
p1441
sg21
g22
sbag7
(g8
g9
NtRp1442
(dp1443
g12
g13
sg14
S'Segoe UI Symbol'
p1444
sg16
I400
sg17
g13
sg18
g13
sg19
S'c:\\windows\\fonts\\seguisym.ttf'
p1445
sg21
g22
sbag7
(g8
g9
NtRp1446
(dp1447
g12
g94
sg14
S'Candara'
p1448
sg16
I700
sg17
g13
sg18
g13
sg19
S'c:\\windows\\fonts\\candaraz.ttf'
p1449
sg21
g22
sbag7
(g8
g9
NtRp1450
(dp1451
g12
g13
sg14
S'AngsanaUPC'
p1452
sg16
I400
sg17
g13
sg18
g13
sg19
S'c:\\windows\\fonts\\angsau.ttf'
p1453
sg21
g22
sbag7
(g8
g9
NtRp1454
(dp1455
g12
g13
sg14
S'Khmer UI'
p1456
sg16
I700
sg17
g13
sg18
g13
sg19
S'C:\\Windows\\Fonts\\KhmerUIb.ttf'
p1457
sg21
g22
sbag7
(g8
g9
NtRp1458
(dp1459
g12
g13
sg14
S'Georgia'
p1460
sg16
I700
sg17
g13
sg18
g13
sg19
S'c:\\windows\\fonts\\georgiab.ttf'
p1461
sg21
g22
sbag7
(g8
g9
NtRp1462
(dp1463
g12
g13
sg14
S'Liberation Mono'
p1464
sg16
I400
sg17
g13
sg18
g13
sg19
S'C:\\Windows\\Fonts\\LiberationMono-Regular.ttf'
p1465
sg21
g22
sbag7
(g8
g9
NtRp1466
(dp1467
g12
g13
sg14
S'Liberation Sans Narrow'
p1468
sg16
I700
sg17
g236
sg18
g13
sg19
S'C:\\Windows\\Fonts\\LiberationSansNarrow-Bold.ttf'
p1469
sg21
g22
sbag7
(g8
g9
NtRp1470
(dp1471
g12
g13
sg14
S'Linux Libertine G'
p1472
sg16
I400
sg17
g13
sg18
g13
sg19
S'C:\\Windows\\Fonts\\LinLibertine_R_G.ttf'
p1473
sg21
g22
sbag7
(g8
g9
NtRp1474
(dp1475
g12
g13
sg14
S'Liberation Sans Narrow'
p1476
sg16
I400
sg17
g236
sg18
g13
sg19
S'c:\\windows\\fonts\\liberationsansnarrow-regular.ttf'
p1477
sg21
g22
sbag7
(g8
g9
NtRp1478
(dp1479
g12
g94
sg14
S'DejaVu Serif'
p1480
sg16
I400
sg17
g13
sg18
g13
sg19
S'C:\\Windows\\Fonts\\DejaVuSerif-Italic.ttf'
p1481
sg21
g22
sbag7
(g8
g9
NtRp1482
(dp1483
g12
g13
sg14
S'DejaVu Sans'
p1484
sg16
I200
sg17
g13
sg18
g13
sg19
S'c:\\windows\\fonts\\dejavusans-extralight.ttf'
p1485
sg21
g22
sbag7
(g8
g9
NtRp1486
(dp1487
g12
g13
sg14
S'Vrinda'
p1488
sg16
I400
sg17
g13
sg18
g13
sg19
S'C:\\Windows\\Fonts\\vrinda.ttf'
p1489
sg21
g22
sbag7
(g8
g9
NtRp1490
(dp1491
g12
g13
sg14
S'Iskoola Pota'
p1492
sg16
I700
sg17
g13
sg18
g13
sg19
S'C:\\Windows\\Fonts\\iskpotab.ttf'
p1493
sg21
g22
sbag7
(g8
g9
NtRp1494
(dp1495
g12
g13
sg14
S'Candara'
p1496
sg16
I400
sg17
g13
sg18
g13
sg19
S'C:\\Windows\\Fonts\\Candara.ttf'
p1497
sg21
g22
sbag7
(g8
g9
NtRp1498
(dp1499
g12
g13
sg14
S'DejaVu Sans'
p1500
sg16
I400
sg17
g236
sg18
g13
sg19
S'c:\\windows\\fonts\\dejavusanscondensed.ttf'
p1501
sg21
g22
sbag7
(g8
g9
NtRp1502
(dp1503
g12
g94
sg14
S'KodchiangUPC'
p1504
sg16
I400
sg17
g13
sg18
g13
sg19
S'c:\\windows\\fonts\\upcki.ttf'
p1505
sg21
g22
sbag7
(g8
g9
NtRp1506
(dp1507
g12
g94
sg14
S'Gentium Basic'
p1508
sg16
I700
sg17
g13
sg18
g13
sg19
S'C:\\Windows\\Fonts\\GenBasBI.ttf'
p1509
sg21
g22
sbag7
(g8
g9
NtRp1510
(dp1511
g12
g94
sg14
S'Liberation Mono'
p1512
sg16
I700
sg17
g13
sg18
g13
sg19
S'c:\\windows\\fonts\\liberationmono-bolditalic.ttf'
p1513
sg21
g22
sbag7
(g8
g9
NtRp1514
(dp1515
g12
g13
sg14
S'Plantagenet Cherokee'
p1516
sg16
I400
sg17
g13
sg18
g13
sg19
S'c:\\windows\\fonts\\plantc.ttf'
p1517
sg21
g22
sbag7
(g8
g9
NtRp1518
(dp1519
g12
g94
sg14
S'Liberation Sans Narrow'
p1520
sg16
I400
sg17
g236
sg18
g13
sg19
S'C:\\Windows\\Fonts\\LiberationSansNarrow-Italic.ttf'
p1521
sg21
g22
sbag7
(g8
g9
NtRp1522
(dp1523
g12
g94
sg14
S'Linux Biolinum G'
p1524
sg16
I400
sg17
g13
sg18
g13
sg19
S'c:\\windows\\fonts\\linbiolinum_ri_g.ttf'
p1525
sg21
g22
sbag7
(g8
g9
NtRp1526
(dp1527
g12
g13
sg14
S'Gabriola'
p1528
sg16
I400
sg17
g13
sg18
g13
sg19
S'c:\\windows\\fonts\\gabriola.ttf'
p1529
sg21
g22
sbag7
(g8
g9
NtRp1530
(dp1531
g12
g13
sg14
S'Gentium Basic'
p1532
sg16
I700
sg17
g13
sg18
g13
sg19
S'c:\\windows\\fonts\\genbasb.ttf'
p1533
sg21
g22
sbag7
(g8
g9
NtRp1534
(dp1535
g12
g94
sg14
S'Liberation Sans Narrow'
p1536
sg16
I400
sg17
g236
sg18
g13
sg19
S'c:\\windows\\fonts\\liberationsansnarrow-italic.ttf'
p1537
sg21
g22
sbag7
(g8
g9
NtRp1538
(dp1539
g12
g13
sg14
S'Gentium Book Basic'
p1540
sg16
I700
sg17
g13
sg18
g13
sg19
S'c:\\windows\\fonts\\genbkbasb.ttf'
p1541
sg21
g22
sbag7
(g8
g9
NtRp1542
(dp1543
g12
g89
sg14
S'DejaVu Sans Mono'
p1544
sg16
I700
sg17
g13
sg18
g13
sg19
S'C:\\Windows\\Fonts\\DejaVuSansMono-BoldOblique.ttf'
p1545
sg21
g22
sbag7
(g8
g9
NtRp1546
(dp1547
g12
g13
sg14
S'DejaVu Sans'
p1548
sg16
I700
sg17
g236
sg18
g13
sg19
S'C:\\Windows\\Fonts\\DejaVuSansCondensed-Bold.ttf'
p1549
sg21
g22
sbag7
(g8
g9
NtRp1550
(dp1551
g12
g94
sg14
S'Liberation Sans'
p1552
sg16
I400
sg17
g13
sg18
g13
sg19
S'C:\\Windows\\Fonts\\LiberationSans-Italic.ttf'
p1553
sg21
g22
sbag7
(g8
g9
NtRp1554
(dp1555
g12
g13
sg14
S'Khmer UI'
p1556
sg16
I400
sg17
g13
sg18
g13
sg19
S'C:\\Windows\\Fonts\\KhmerUI.ttf'
p1557
sg21
g22
sbag7
(g8
g9
NtRp1558
(dp1559
g12
g89
sg14
S'DejaVu Sans Mono'
p1560
sg16
I400
sg17
g13
sg18
g13
sg19
S'c:\\windows\\fonts\\dejavusansmono-oblique.ttf'
p1561
sg21
g22
sbasS'defaultFamily'
p1562
(dp1563
S'afm'
p1564
S'Helvetica'
p1565
sS'ttf'
p1566
S'Bitstream Vera Sans'
p1567
ssS'ttffiles'
p1568
(lp1569
S'c:\\Python27\\lib\\site-packages\\matplotlib\\mpl-data\\fonts\\ttf\\cmb10.ttf'
p1570
aS'c:\\Python27\\lib\\site-packages\\matplotlib\\mpl-data\\fonts\\ttf\\STIXNonUni.ttf'
p1571
aS'c:\\Python27\\lib\\site-packages\\matplotlib\\mpl-data\\fonts\\ttf\\VeraMono.ttf'
p1572
aS'c:\\Python27\\lib\\site-packages\\matplotlib\\mpl-data\\fonts\\ttf\\STIXSizTwoSymReg.ttf'
p1573
aS'c:\\Python27\\lib\\site-packages\\matplotlib\\mpl-data\\fonts\\ttf\\cmtt10.ttf'
p1574
aS'c:\\Python27\\lib\\site-packages\\matplotlib\\mpl-data\\fonts\\ttf\\cmmi10.ttf'
p1575
aS'c:\\Python27\\lib\\site-packages\\matplotlib\\mpl-data\\fonts\\ttf\\STIXSizOneSymReg.ttf'
p1576
aS'c:\\Python27\\lib\\site-packages\\matplotlib\\mpl-data\\fonts\\ttf\\STIXSizFiveSymReg.ttf'
p1577
aS'c:\\Python27\\lib\\site-packages\\matplotlib\\mpl-data\\fonts\\ttf\\STIXGeneralBol.ttf'
p1578
aS'c:\\Python27\\lib\\site-packages\\matplotlib\\mpl-data\\fonts\\ttf\\VeraMoBd.ttf'
p1579
aS'c:\\Python27\\lib\\site-packages\\matplotlib\\mpl-data\\fonts\\ttf\\Vera.ttf'
p1580
aS'c:\\Python27\\lib\\site-packages\\matplotlib\\mpl-data\\fonts\\ttf\\STIXSizOneSymBol.ttf'
p1581
aS'c:\\Python27\\lib\\site-packages\\matplotlib\\mpl-data\\fonts\\ttf\\STIXSizThreeSymReg.ttf'
p1582
aS'c:\\Python27\\lib\\site-packages\\matplotlib\\mpl-data\\fonts\\ttf\\STIXNonUniBol.ttf'
p1583
aS'c:\\Python27\\lib\\site-packages\\matplotlib\\mpl-data\\fonts\\ttf\\VeraBd.ttf'
p1584
aS'c:\\Python27\\lib\\site-packages\\matplotlib\\mpl-data\\fonts\\ttf\\cmr10.ttf'
p1585
aS'c:\\Python27\\lib\\site-packages\\matplotlib\\mpl-data\\fonts\\ttf\\STIXGeneral.ttf'
p1586
aS'c:\\Python27\\lib\\site-packages\\matplotlib\\mpl-data\\fonts\\ttf\\VeraMoIt.ttf'
p1587
aS'c:\\Python27\\lib\\site-packages\\matplotlib\\mpl-data\\fonts\\ttf\\STIXGeneralBolIta.ttf'
p1588
aS'c:\\Python27\\lib\\site-packages\\matplotlib\\mpl-data\\fonts\\ttf\\STIXSizTwoSymBol.ttf'
p1589
aS'c:\\Python27\\lib\\site-packages\\matplotlib\\mpl-data\\fonts\\ttf\\VeraSe.ttf'
p1590
aS'c:\\Python27\\lib\\site-packages\\matplotlib\\mpl-data\\fonts\\ttf\\VeraSeBd.ttf'
p1591
aS'c:\\Python27\\lib\\site-packages\\matplotlib\\mpl-data\\fonts\\ttf\\cmss10.ttf'
p1592
aS'c:\\Python27\\lib\\site-packages\\matplotlib\\mpl-data\\fonts\\ttf\\STIXGeneralItalic.ttf'
p1593
aS'c:\\Python27\\lib\\site-packages\\matplotlib\\mpl-data\\fonts\\ttf\\STIXSizFourSymBol.ttf'
p1594
aS'c:\\Python27\\lib\\site-packages\\matplotlib\\mpl-data\\fonts\\ttf\\cmsy10.ttf'
p1595
aS'c:\\Python27\\lib\\site-packages\\matplotlib\\mpl-data\\fonts\\ttf\\cmex10.ttf'
p1596
aS'c:\\Python27\\lib\\site-packages\\matplotlib\\mpl-data\\fonts\\ttf\\VeraMoBI.ttf'
p1597
aS'c:\\Python27\\lib\\site-packages\\matplotlib\\mpl-data\\fonts\\ttf\\STIXNonUniIta.ttf'
p1598
aS'c:\\Python27\\lib\\site-packages\\matplotlib\\mpl-data\\fonts\\ttf\\VeraBI.ttf'
p1599
aS'c:\\Python27\\lib\\site-packages\\matplotlib\\mpl-data\\fonts\\ttf\\STIXNonUniBolIta.ttf'
p1600
aS'c:\\Python27\\lib\\site-packages\\matplotlib\\mpl-data\\fonts\\ttf\\STIXSizThreeSymBol.ttf'
p1601
aS'c:\\Python27\\lib\\site-packages\\matplotlib\\mpl-data\\fonts\\ttf\\STIXSizFourSymReg.ttf'
p1602
aS'c:\\Python27\\lib\\site-packages\\matplotlib\\mpl-data\\fonts\\ttf\\VeraIt.ttf'
p1603
aVC:\u005cWindows\u005cFonts\u005ccour.ttf
p1604
aVc:\u005cwindows\u005cfonts\u005cbrowai.ttf
p1605
aVc:\u005cwindows\u005cfonts\u005ccambriab.ttf
p1606
aVC:\u005cWindows\u005cFonts\u005cverdanaz.ttf
p1607
aVC:\u005cWindows\u005cFonts\u005cpalabi.ttf
p1608
aVc:\u005cwindows\u005cfonts\u005cupcji.ttf
p1609
aVC:\u005cWindows\u005cFonts\u005ctaileb.ttf
p1610
aVc:\u005cwindows\u005cfonts\u005ctrebucbd.ttf
p1611
aVC:\u005cWindows\u005cFonts\u005ctahomabd.ttf
p1612
aVC:\u005cWindows\u005cFonts\u005craavi.ttf
p1613
aVc:\u005cwindows\u005cfonts\u005cbrowau.ttf
p1614
aVc:\u005cwindows\u005cfonts\u005csimkai.ttf
p1615
aVc:\u005cwindows\u005cfonts\u005ctaileb.ttf
p1616
aVc:\u005cwindows\u005cfonts\u005ctrebucbi.ttf
p1617
aVc:\u005cwindows\u005cfonts\u005csegoeuiz.ttf
p1618
aVc:\u005cwindows\u005cfonts\u005cbrowauz.ttf
p1619
aVC:\u005cWindows\u005cFonts\u005cmalgunbd.ttf
p1620
aVC:\u005cWindows\u005cFonts\u005cdokchamp.ttf
p1621
aVc:\u005cwindows\u005cfonts\u005cariali.ttf
p1622
aVc:\u005cwindows\u005cfonts\u005ckhmeruib.ttf
p1623
aVC:\u005cWindows\u005cFonts\u005cDejaVuSansCondensed-BoldOblique.ttf
p1624
aVc:\u005cwindows\u005cfonts\u005cgenbkbasbi.ttf
p1625
aVc:\u005cwindows\u005cfonts\u005csimpo.ttf
p1626
aVc:\u005cwindows\u005cfonts\u005carabtype.ttf
p1627
aVC:\u005cWindows\u005cFonts\u005ckartikab.ttf
p1628
aVc:\u005cwindows\u005cfonts\u005ckhmerui.ttf
p1629
aVc:\u005cwindows\u005cfonts\u005cseguisb.ttf
p1630
aVC:\u005cWindows\u005cFonts\u005ckokilab.ttf
p1631
aVC:\u005cWindows\u005cFonts\u005ccalibril.ttf
p1632
aVC:\u005cWindows\u005cFonts\u005ccordiab.ttf
p1633
aVc:\u005cwindows\u005cfonts\u005cliberationserif-regular.ttf
p1634
aVC:\u005cWindows\u005cFonts\u005ceuphemia.ttf
p1635
aVC:\u005cWindows\u005cFonts\u005cgeorgiai.ttf
p1636
aVC:\u005cWindows\u005cFonts\u005cleelawdb.ttf
p1637
aVc:\u005cwindows\u005cfonts\u005cdejavuserif-bold.ttf
p1638
aVC:\u005cWindows\u005cFonts\u005chimalaya.ttf
p1639
aVc:\u005cwindows\u005cfonts\u005ctahomabd.ttf
p1640
aVC:\u005cWindows\u005cFonts\u005ccordia.ttf
p1641
aVc:\u005cwindows\u005cfonts\u005ckokilab.ttf
p1642
aVc:\u005cwindows\u005cfonts\u005cgautamib.ttf
p1643
aVC:\u005cWindows\u005cFonts\u005cLinLibertine_RZI_G.ttf
p1644
aVc:\u005cwindows\u005cfonts\u005cdejavusanscondensed-bold.ttf
p1645
aVc:\u005cwindows\u005cfonts\u005cliberationsansnarrow-bold.ttf
p1646
aVC:\u005cWindows\u005cFonts\u005cangsai.ttf
p1647
aVC:\u005cWindows\u005cFonts\u005cupcfb.ttf
p1648
aVc:\u005cwindows\u005cfonts\u005carialbd.ttf
p1649
aVC:\u005cWindows\u005cFonts\u005cmajalla.ttf
p1650
aVC:\u005cWindows\u005cFonts\u005cDejaVuSans-BoldOblique.ttf
p1651
aVC:\u005cWindows\u005cFonts\u005cGenBkBasB.ttf
p1652
aVc:\u005cwindows\u005cfonts\u005cmsyh.ttf
p1653
aVC:\u005cWindows\u005cFonts\u005ctunga.ttf
p1654
aVc:\u005cwindows\u005cfonts\u005cverdanaz.ttf
p1655
aVC:\u005cWindows\u005cFonts\u005ccambriaz.ttf
p1656
aVC:\u005cWindows\u005cFonts\u005cupcibi.ttf
p1657
aVc:\u005cwindows\u005cfonts\u005cmsjhbd.ttf
p1658
aVC:\u005cWindows\u005cFonts\u005cDejaVuSansMono.ttf
p1659
aVc:\u005cwindows\u005cfonts\u005csegoeui.ttf
p1660
aVC:\u005cWindows\u005cFonts\u005clvnmbd.ttf
p1661
aVC:\u005cWindows\u005cFonts\u005ctimesbd.ttf
p1662
aVC:\u005cWindows\u005cFonts\u005cphagspab.ttf
p1663
aVC:\u005cWindows\u005cFonts\u005cmoolbor.ttf
p1664
aVC:\u005cWindows\u005cFonts\u005cmarlett.ttf
p1665
aVc:\u005cwindows\u005cfonts\u005cbrowab.ttf
p1666
aVc:\u005cwindows\u005cfonts\u005ccorbelb.ttf
p1667
aVc:\u005cwindows\u005cfonts\u005csimpbdo.ttf
p1668
aVC:\u005cWindows\u005cFonts\u005cDejaVuSans-ExtraLight.ttf
p1669
aVC:\u005cWindows\u005cFonts\u005cupcll.ttf
p1670
aVC:\u005cWindows\u005cFonts\u005cupcfbi.ttf
p1671
aVC:\u005cWindows\u005cFonts\u005cGenBkBasBI.ttf
p1672
aVC:\u005cWindows\u005cFonts\u005cconsola.ttf
p1673
aVC:\u005cWindows\u005cFonts\u005cvrindab.ttf
p1674
aVC:\u005cWindows\u005cFonts\u005ckalingab.ttf
p1675
aVC:\u005cWindows\u005cFonts\u005ccalibrii.ttf
p1676
aVC:\u005cWindows\u005cFonts\u005cframdit.ttf
p1677
aVc:\u005cwindows\u005cfonts\u005cutsaahi.ttf
p1678
aVc:\u005cwindows\u005cfonts\u005cupcdi.ttf
p1679
aVC:\u005cWindows\u005cFonts\u005ckaiu.ttf
p1680
aVc:\u005cwindows\u005cfonts\u005cangsauz.ttf
p1681
aVc:\u005cwindows\u005cfonts\u005cvrindab.ttf
p1682
aVc:\u005cwindows\u005cfonts\u005cshonar.ttf
p1683
aVC:\u005cWindows\u005cFonts\u005ctrebucbi.ttf
p1684
aVc:\u005cwindows\u005cfonts\u005cverdanai.ttf
p1685
aVC:\u005cWindows\u005cFonts\u005cconstanb.ttf
p1686
aVC:\u005cWindows\u005cFonts\u005cLinLibertine_RBI_G.ttf
p1687
aVc:\u005cwindows\u005cfonts\u005cutsaah.ttf
p1688
aVc:\u005cwindows\u005cfonts\u005cmsyhbd.ttf
p1689
aVc:\u005cwindows\u005cfonts\u005csymbol.ttf
p1690
aVC:\u005cWindows\u005cFonts\u005copens___.ttf
p1691
aVc:\u005cwindows\u005cfonts\u005csylfaen.ttf
p1692
aVC:\u005cWindows\u005cFonts\u005cLiberationMono-Italic.ttf
p1693
aVC:\u005cWindows\u005cFonts\u005ccalibriz.ttf
p1694
aVc:\u005cwindows\u005cfonts\u005cahronbd.ttf
p1695
aVc:\u005cwindows\u005cfonts\u005cutsaahb.ttf
p1696
aVC:\u005cWindows\u005cFonts\u005cupcjbi.ttf
p1697
aVc:\u005cwindows\u005cfonts\u005cgenbasbi.ttf
p1698
aVc:\u005cwindows\u005cfonts\u005cupcel.ttf
p1699
aVc:\u005cwindows\u005cfonts\u005cmoolbor.ttf
p1700
aVc:\u005cwindows\u005cfonts\u005cgenbkbasr.ttf
p1701
aVC:\u005cWindows\u005cFonts\u005cconstanz.ttf
p1702
aVc:\u005cwindows\u005cfonts\u005cupckl.ttf
p1703
aVc:\u005cwindows\u005cfonts\u005cangsaui.ttf
p1704
aVc:\u005cwindows\u005cfonts\u005cdejavusans-oblique.ttf
p1705
aVc:\u005cwindows\u005cfonts\u005cupcfi.ttf
p1706
aVC:\u005cWindows\u005cFonts\u005cframd.ttf
p1707
aVc:\u005cwindows\u005cfonts\u005ctaile.ttf
p1708
aVC:\u005cWindows\u005cFonts\u005cupckbi.ttf
p1709
aVc:\u005cwindows\u005cfonts\u005ccalibri.ttf
p1710
aVC:\u005cWindows\u005cFonts\u005csimfang.ttf
p1711
aVC:\u005cWindows\u005cFonts\u005cbrowab.ttf
p1712
aVc:\u005cwindows\u005cfonts\u005cgenbkbasi.ttf
p1713
aVC:\u005cWindows\u005cFonts\u005cimpact.ttf
p1714
aVc:\u005cwindows\u005cfonts\u005cupcil.ttf
p1715
aVc:\u005cwindows\u005cfonts\u005cliberationsans-regular.ttf
p1716
aVC:\u005cWindows\u005cFonts\u005cupcel.ttf
p1717
aVC:\u005cWindows\u005cFonts\u005cwingding.ttf
p1718
aVc:\u005cwindows\u005cfonts\u005clatha.ttf
p1719
aVc:\u005cwindows\u005cfonts\u005clucon.ttf
p1720
aVC:\u005cWindows\u005cFonts\u005cmangalb.ttf
p1721
aVC:\u005cWindows\u005cFonts\u005ckartika.ttf
p1722
aVc:\u005cwindows\u005cfonts\u005cvani.ttf
p1723
aVc:\u005cwindows\u005cfonts\u005cdejavuserifcondensed.ttf
p1724
aVc:\u005cwindows\u005cfonts\u005cupcdl.ttf
p1725
aVC:\u005cWindows\u005cFonts\u005cupclb.ttf
p1726
aVC:\u005cWindows\u005cFonts\u005cGenBasI.ttf
p1727
aVC:\u005cWindows\u005cFonts\u005cl_10646.ttf
p1728
aVc:\u005cwindows\u005cfonts\u005cupckbi.ttf
p1729
aVC:\u005cWindows\u005cFonts\u005cDejaVuSansMono-Oblique.ttf
p1730
aVC:\u005cWindows\u005cFonts\u005cLiberationSans-BoldItalic.ttf
p1731
aVc:\u005cwindows\u005cfonts\u005caparajbi.ttf
p1732
aVc:\u005cwindows\u005cfonts\u005cebrimabd.ttf
p1733
aVC:\u005cWindows\u005cFonts\u005csegoepr.ttf
p1734
aVC:\u005cWindows\u005cFonts\u005cmicross.ttf
p1735
aVC:\u005cWindows\u005cFonts\u005ckokilabi.ttf
p1736
aVC:\u005cWindows\u005cFonts\u005csegoeprb.ttf
p1737
aVC:\u005cWindows\u005cFonts\u005cupcfl.ttf
p1738
aVc:\u005cwindows\u005cfonts\u005cmriamc.ttf
p1739
aVc:\u005cwindows\u005cfonts\u005cupcii.ttf
p1740
aVC:\u005cWindows\u005cFonts\u005cDejaVuSerif.ttf
p1741
aVC:\u005cWindows\u005cFonts\u005cverdanai.ttf
p1742
aVC:\u005cWindows\u005cFonts\u005ccordiaz.ttf
p1743
aVc:\u005cwindows\u005cfonts\u005csegoepr.ttf
p1744
aVc:\u005cwindows\u005cfonts\u005cmicross.ttf
p1745
aVc:\u005cwindows\u005cfonts\u005ctimes.ttf
p1746
aVc:\u005cwindows\u005cfonts\u005cconsolab.ttf
p1747
aVC:\u005cWindows\u005cFonts\u005cutsaah.ttf
p1748
aVc:\u005cwindows\u005cfonts\u005ckalingab.ttf
p1749
aVc:\u005cwindows\u005cfonts\u005cdejavusans.ttf
p1750
aVc:\u005cwindows\u005cfonts\u005cvijayab.ttf
p1751
aVC:\u005cWindows\u005cFonts\u005cDejaVuSansCondensed-Oblique.ttf
p1752
aVc:\u005cwindows\u005cfonts\u005ccouri.ttf
p1753
aVC:\u005cWindows\u005cFonts\u005cshrutib.ttf
p1754
aVc:\u005cwindows\u005cfonts\u005ccordiauz.ttf
p1755
aVc:\u005cwindows\u005cfonts\u005cleelawad.ttf
p1756
aVc:\u005cwindows\u005cfonts\u005carial.ttf
p1757
aVc:\u005cwindows\u005cfonts\u005cshonarb.ttf
p1758
aVC:\u005cWindows\u005cFonts\u005cVani.ttf
p1759
aVc:\u005cwindows\u005cfonts\u005cl_10646.ttf
p1760
aVC:\u005cWindows\u005cFonts\u005cmriamc.ttf
p1761
aVC:\u005cWindows\u005cFonts\u005cseguisb.ttf
p1762
aVc:\u005cwindows\u005cfonts\u005cdejavusansmono-bold.ttf
p1763
aVC:\u005cWindows\u005cFonts\u005cLinBiolinum_RI_G.ttf
p1764
aVC:\u005cWindows\u005cFonts\u005ctradbdo.ttf
p1765
aVc:\u005cwindows\u005cfonts\u005cupcdbi.ttf
p1766
aVC:\u005cWindows\u005cFonts\u005ckokilai.ttf
p1767
aVC:\u005cWindows\u005cFonts\u005cgautamib.ttf
p1768
aVc:\u005cwindows\u005cfonts\u005cpalai.ttf
p1769
aVC:\u005cWindows\u005cFonts\u005cLiberationSansNarrow-Regular.ttf
p1770
aVc:\u005cwindows\u005cfonts\u005ccalibrib.ttf
p1771
aVc:\u005cwindows\u005cfonts\u005cupcjb.ttf
p1772
aVC:\u005cWindows\u005cFonts\u005cDejaVuSerif-BoldItalic.ttf
p1773
aVc:\u005cwindows\u005cfonts\u005cdavidbd.ttf
p1774
aVC:\u005cWindows\u005cFonts\u005cconstani.ttf
p1775
aVc:\u005cwindows\u005cfonts\u005cdejavusanscondensed-boldoblique.ttf
p1776
aVc:\u005cwindows\u005cfonts\u005ckokilai.ttf
p1777
aVc:\u005cwindows\u005cfonts\u005cconstan.ttf
p1778
aVc:\u005cwindows\u005cfonts\u005csimpfxo.ttf
p1779
aVc:\u005cwindows\u005cfonts\u005cmangal.ttf
p1780
aVc:\u005cwindows\u005cfonts\u005ctrebuc.ttf
p1781
aVc:\u005cwindows\u005cfonts\u005csimhei.ttf
p1782
aVc:\u005cwindows\u005cfonts\u005claoui.ttf
p1783
aVc:\u005cwindows\u005cfonts\u005ccambriai.ttf
p1784
aVC:\u005cWindows\u005cFonts\u005cLiberationMono-BoldItalic.ttf
p1785
aVc:\u005cwindows\u005cfonts\u005ccour.ttf
p1786
aVC:\u005cWindows\u005cFonts\u005clatha.ttf
p1787
aVC:\u005cWindows\u005cFonts\u005cbrowaui.ttf
p1788
aVc:\u005cwindows\u005cfonts\u005cdaunpenh.ttf
p1789
aVC:\u005cWindows\u005cFonts\u005cCandarab.ttf
p1790
aVc:\u005cwindows\u005cfonts\u005ctradbdo.ttf
p1791
aVC:\u005cWindows\u005cFonts\u005cariblk.ttf
p1792
aVC:\u005cWindows\u005cFonts\u005ccorbel.ttf
p1793
aVC:\u005cWindows\u005cFonts\u005cgautami.ttf
p1794
aVC:\u005cWindows\u005cFonts\u005cLiberationSans-Regular.ttf
p1795
aVC:\u005cWindows\u005cFonts\u005cmsyi.ttf
p1796
aVc:\u005cwindows\u005cfonts\u005cdejavuserifcondensed-italic.ttf
p1797
aVC:\u005cWindows\u005cFonts\u005ccalibrib.ttf
p1798
aVC:\u005cWindows\u005cFonts\u005clvnm.ttf
p1799
aVc:\u005cwindows\u005cfonts\u005cupcdb.ttf
p1800
aVC:\u005cWindows\u005cFonts\u005cDejaVuSerifCondensed-Bold.ttf
p1801
aVC:\u005cWindows\u005cFonts\u005cnrkis.ttf
p1802
aVC:\u005cWindows\u005cFonts\u005cLiberationMono-Bold.ttf
p1803
aVc:\u005cwindows\u005cfonts\u005cverdanab.ttf
p1804
aVC:\u005cWindows\u005cFonts\u005cLiberationSansNarrow-BoldItalic.ttf
p1805
aVc:\u005cwindows\u005cfonts\u005ccourbi.ttf
p1806
aVC:\u005cWindows\u005cFonts\u005cGenBkBasR.ttf
p1807
aVc:\u005cwindows\u005cfonts\u005cphagspa.ttf
p1808
aVC:\u005cWindows\u005cFonts\u005cDejaVuSerifCondensed-BoldItalic.ttf
p1809
aVC:\u005cWindows\u005cFonts\u005cupcib.ttf
p1810
aVc:\u005cwindows\u005cfonts\u005cdejavuserif-italic.ttf
p1811
aVC:\u005cWindows\u005cFonts\u005cupcdb.ttf
p1812
aVc:\u005cwindows\u005cfonts\u005cdejavusansmono-boldoblique.ttf
p1813
aVC:\u005cWindows\u005cFonts\u005cangsa.ttf
p1814
aVC:\u005cWindows\u005cFonts\u005cangsab.ttf
p1815
aVC:\u005cWindows\u005cFonts\u005csegoeuib.ttf
p1816
aVC:\u005cWindows\u005cFonts\u005cebrima.ttf
p1817
aVC:\u005cWindows\u005cFonts\u005cCandaraz.ttf
p1818
aVC:\u005cWindows\u005cFonts\u005cupckl.ttf
p1819
aVc:\u005cwindows\u005cfonts\u005clinlibertine_rzi_g.ttf
p1820
aVC:\u005cWindows\u005cFonts\u005cmalgun.ttf
p1821
aVC:\u005cWindows\u005cFonts\u005cdaunpenh.ttf
p1822
aVc:\u005cwindows\u005cfonts\u005cliberationsans-bolditalic.ttf
p1823
aVC:\u005cWindows\u005cFonts\u005cconsolai.ttf
p1824
aVc:\u005cwindows\u005cfonts\u005ctrado.ttf
p1825
aVc:\u005cwindows\u005cfonts\u005cbrowaub.ttf
p1826
aVc:\u005cwindows\u005cfonts\u005clinlibertine_rbi_g.ttf
p1827
aVC:\u005cWindows\u005cFonts\u005cmsuighur.ttf
p1828
aVc:\u005cwindows\u005cfonts\u005clinbiolinum_rb_g.ttf
p1829
aVc:\u005cwindows\u005cfonts\u005ckokilabi.ttf
p1830
aVC:\u005cWindows\u005cFonts\u005ccourbd.ttf
p1831
aVC:\u005cWindows\u005cFonts\u005ctimesbi.ttf
p1832
aVc:\u005cwindows\u005cfonts\u005cgisha.ttf
p1833
aVC:\u005cWindows\u005cFonts\u005cbrowauz.ttf
p1834
aVc:\u005cwindows\u005cfonts\u005clinlibertine_ri_g.ttf
p1835
aVC:\u005cWindows\u005cFonts\u005caparajb.ttf
p1836
aVc:\u005cwindows\u005cfonts\u005carialbi.ttf
p1837
aVc:\u005cwindows\u005cfonts\u005ctrebucit.ttf
p1838
aVc:\u005cwindows\u005cfonts\u005ccourbd.ttf
p1839
aVc:\u005cwindows\u005cfonts\u005clinlibertine_rb_g.ttf
p1840
aVc:\u005cwindows\u005cfonts\u005cconsola.ttf
p1841
aVc:\u005cwindows\u005cfonts\u005csimsunb.ttf
p1842
aVc:\u005cwindows\u005cfonts\u005cshrutib.ttf
p1843
aVc:\u005cwindows\u005cfonts\u005cliberationserif-italic.ttf
p1844
aVc:\u005cwindows\u005cfonts\u005copens___.ttf
p1845
aVc:\u005cwindows\u005cfonts\u005cliberationsans-bold.ttf
p1846
aVc:\u005cwindows\u005cfonts\u005cbrowaui.ttf
p1847
aVC:\u005cWindows\u005cFonts\u005cLinLibertine_RB_G.ttf
p1848
aVc:\u005cwindows\u005cfonts\u005cframdit.ttf
p1849
aVc:\u005cwindows\u005cfonts\u005cmriam.ttf
p1850
aVC:\u005cWindows\u005cFonts\u005cupcii.ttf
p1851
aVc:\u005cwindows\u005cfonts\u005ctimesbi.ttf
p1852
aVc:\u005cwindows\u005cfonts\u005cmangalb.ttf
p1853
aVc:\u005cwindows\u005cfonts\u005ccomicbd.ttf
p1854
aVc:\u005cwindows\u005cfonts\u005ccandarab.ttf
p1855
aVc:\u005cwindows\u005cfonts\u005cupcjbi.ttf
p1856
aVC:\u005cWindows\u005cFonts\u005cgeorgiaz.ttf
p1857
aVc:\u005cwindows\u005cfonts\u005cupclb.ttf
p1858
aVC:\u005cWindows\u005cFonts\u005cmsjh.ttf
p1859
aVC:\u005cWindows\u005cFonts\u005carialbi.ttf
p1860
aVc:\u005cwindows\u005cfonts\u005cupcebi.ttf
p1861
aVC:\u005cWindows\u005cFonts\u005cbrowa.ttf
p1862
aVC:\u005cWindows\u005cFonts\u005cDejaVuSans.ttf
p1863
aVC:\u005cWindows\u005cFonts\u005ccambriai.ttf
p1864
aVC:\u005cWindows\u005cFonts\u005cupcdbi.ttf
p1865
aVc:\u005cwindows\u005cfonts\u005ccandarai.ttf
p1866
aVc:\u005cwindows\u005cfonts\u005cupceb.ttf
p1867
aVC:\u005cWindows\u005cFonts\u005cDejaVuSansMono-Bold.ttf
p1868
aVc:\u005cwindows\u005cfonts\u005caparaj.ttf
p1869
aVc:\u005cwindows\u005cfonts\u005cliberationserif-bold.ttf
p1870
aVc:\u005cwindows\u005cfonts\u005clinbiolinum_r_g.ttf
p1871
aVc:\u005cwindows\u005cfonts\u005cconstanb.ttf
p1872
aVc:\u005cwindows\u005cfonts\u005cgautami.ttf
p1873
aVc:\u005cwindows\u005cfonts\u005cdejavusanscondensed-oblique.ttf
p1874
aVC:\u005cWindows\u005cFonts\u005ctimesi.ttf
p1875
aVC:\u005cWindows\u005cFonts\u005cvijayab.ttf
p1876
aVC:\u005cWindows\u005cFonts\u005cGabriola.ttf
p1877
aVc:\u005cwindows\u005cfonts\u005ccalibriz.ttf
p1878
aVc:\u005cwindows\u005cfonts\u005ciskpota.ttf
p1879
aVC:\u005cWindows\u005cFonts\u005cCandarai.ttf
p1880
aVC:\u005cWindows\u005cFonts\u005cangsauz.ttf
p1881
aVC:\u005cWindows\u005cFonts\u005ctrebucbd.ttf
p1882
aVc:\u005cwindows\u005cfonts\u005cupcib.ttf
p1883
aVC:\u005cWindows\u005cFonts\u005ccouri.ttf
p1884
aVC:\u005cWindows\u005cFonts\u005ccordiauz.ttf
p1885
aVc:\u005cwindows\u005cfonts\u005ccordiab.ttf
p1886
aVc:\u005cwindows\u005cfonts\u005ceuphemia.ttf
p1887
aVc:\u005cwindows\u005cfonts\u005cangsab.ttf
p1888
aVc:\u005cwindows\u005cfonts\u005cliberationsansnarrow-bolditalic.ttf
p1889
aVc:\u005cwindows\u005cfonts\u005caparaji.ttf
p1890
aVC:\u005cWindows\u005cFonts\u005ckalinga.ttf
p1891
aVc:\u005cwindows\u005cfonts\u005cconstanz.ttf
p1892
aVC:\u005cWindows\u005cFonts\u005caparaj.ttf
p1893
aVC:\u005cWindows\u005cFonts\u005cGenBasR.ttf
p1894
aVC:\u005cWindows\u005cFonts\u005csylfaen.ttf
p1895
aVC:\u005cWindows\u005cFonts\u005csegoeuii.ttf
p1896
aVc:\u005cwindows\u005cfonts\u005ccandara.ttf
p1897
aVC:\u005cWindows\u005cFonts\u005cmvboli.ttf
p1898
aVc:\u005cwindows\u005cfonts\u005cvijaya.ttf
p1899
aVC:\u005cWindows\u005cFonts\u005ccordiai.ttf
p1900
aVC:\u005cWindows\u005cFonts\u005cutsaahb.ttf
p1901
aVC:\u005cWindows\u005cFonts\u005csimpbdo.ttf
p1902
aVC:\u005cWindows\u005cFonts\u005ctungab.ttf
p1903
aVC:\u005cWindows\u005cFonts\u005cmriam.ttf
p1904
aVC:\u005cWindows\u005cFonts\u005cmajallab.ttf
p1905
aVC:\u005cWindows\u005cFonts\u005ccomicbd.ttf
p1906
aVC:\u005cWindows\u005cFonts\u005ciskpota.ttf
p1907
aVc:\u005cwindows\u005cfonts\u005cupcjl.ttf
p1908
aVC:\u005cWindows\u005cFonts\u005cShonar.ttf
p1909
aVc:\u005cwindows\u005cfonts\u005cgenbasr.ttf
p1910
aVC:\u005cWindows\u005cFonts\u005csegoeuil.ttf
p1911
aVc:\u005cwindows\u005cfonts\u005cmsyi.ttf
p1912
aVc:\u005cwindows\u005cfonts\u005cwingding.ttf
p1913
aVC:\u005cWindows\u005cFonts\u005csimkai.ttf
p1914
aVC:\u005cWindows\u005cFonts\u005csimhei.ttf
p1915
aVC:\u005cWindows\u005cFonts\u005cbrowai.ttf
p1916
aVC:\u005cWindows\u005cFonts\u005ccorbelz.ttf
p1917
aVC:\u005cWindows\u005cFonts\u005cupcji.ttf
p1918
aVc:\u005cwindows\u005cfonts\u005csegoescb.ttf
p1919
aVc:\u005cwindows\u005cfonts\u005cdejavuserifcondensed-bolditalic.ttf
p1920
aVC:\u005cWindows\u005cFonts\u005carialbd.ttf
p1921
aVC:\u005cWindows\u005cFonts\u005ccomic.ttf
p1922
aVC:\u005cWindows\u005cFonts\u005cshruti.ttf
p1923
aVc:\u005cwindows\u005cfonts\u005cangsa.ttf
p1924
aVc:\u005cwindows\u005cfonts\u005ccalibril.ttf
p1925
aVC:\u005cWindows\u005cFonts\u005ctrado.ttf
p1926
aVc:\u005cwindows\u005cfonts\u005cdejavusansmono.ttf
p1927
aVC:\u005cWindows\u005cFonts\u005cupcjl.ttf
p1928
aVC:\u005cWindows\u005cFonts\u005cupcil.ttf
p1929
aVc:\u005cwindows\u005cfonts\u005cpalab.ttf
p1930
aVC:\u005cWindows\u005cFonts\u005cLiberationSerif-BoldItalic.ttf
p1931
aVC:\u005cWindows\u005cFonts\u005cutsaahbi.ttf
p1932
aVc:\u005cwindows\u005cfonts\u005cupclbi.ttf
p1933
aVC:\u005cWindows\u005cFonts\u005cLiberationSerif-Bold.ttf
p1934
aVc:\u005cwindows\u005cfonts\u005cfrank.ttf
p1935
aVC:\u005cWindows\u005cFonts\u005craavib.ttf
p1936
aVC:\u005cWindows\u005cFonts\u005cLiberationSerif-Italic.ttf
p1937
aVc:\u005cwindows\u005cfonts\u005cliberationmono-italic.ttf
p1938
aVc:\u005cwindows\u005cfonts\u005cliberationsans-italic.ttf
p1939
aVc:\u005cwindows\u005cfonts\u005cliberationmono-bold.ttf
p1940
aVc:\u005cwindows\u005cfonts\u005caparajb.ttf
p1941
aVC:\u005cWindows\u005cFonts\u005cdavidbd.ttf
p1942
aVc:\u005cwindows\u005cfonts\u005cariblk.ttf
p1943
aVC:\u005cWindows\u005cFonts\u005cntailu.ttf
p1944
aVC:\u005cWindows\u005cFonts\u005cupcli.ttf
p1945
aVC:\u005cWindows\u005cFonts\u005cDejaVuSans-Bold.ttf
p1946
aVc:\u005cwindows\u005cfonts\u005cconsolaz.ttf
p1947
aVc:\u005cwindows\u005cfonts\u005craavib.ttf
p1948
aVc:\u005cwindows\u005cfonts\u005cupcei.ttf
p1949
aVc:\u005cwindows\u005cfonts\u005cupckb.ttf
p1950
aVc:\u005cwindows\u005cfonts\u005clinlibertine_rz_g.ttf
p1951
aVC:\u005cWindows\u005cFonts\u005cVanib.ttf
p1952
aVC:\u005cWindows\u005cFonts\u005cLiberationSerif-Regular.ttf
p1953
aVc:\u005cwindows\u005cfonts\u005cliberationmono-regular.ttf
p1954
aVC:\u005cWindows\u005cFonts\u005cLinLibertine_RI_G.ttf
p1955
aVC:\u005cWindows\u005cFonts\u005ctrebuc.ttf
p1956
aVC:\u005cWindows\u005cFonts\u005ccorbeli.ttf
p1957
aVc:\u005cwindows\u005cfonts\u005cdejavuserif-bolditalic.ttf
p1958
aVC:\u005cWindows\u005cFonts\u005cgishabd.ttf
p1959
aVC:\u005cWindows\u005cFonts\u005cconsolab.ttf
p1960
aVC:\u005cWindows\u005cFonts\u005cDejaVuSerifCondensed.ttf
p1961
aVC:\u005cWindows\u005cFonts\u005cestre.ttf
p1962
aVc:\u005cwindows\u005cfonts\u005cnyala.ttf
p1963
aVc:\u005cwindows\u005cfonts\u005cupcll.ttf
p1964
aVc:\u005cwindows\u005cfonts\u005ccordiaub.ttf
p1965
aVC:\u005cWindows\u005cFonts\u005cDejaVuSansCondensed.ttf
p1966
aVc:\u005cwindows\u005cfonts\u005cgenbasi.ttf
p1967
aVC:\u005cWindows\u005cFonts\u005csegoesc.ttf
p1968
aVC:\u005cWindows\u005cFonts\u005cgeorgia.ttf
p1969
aVc:\u005cwindows\u005cfonts\u005chimalaya.ttf
p1970
aVc:\u005cwindows\u005cfonts\u005ccalibrii.ttf
p1971
aVc:\u005cwindows\u005cfonts\u005ctimesi.ttf
p1972
aVC:\u005cWindows\u005cFonts\u005cLinBiolinum_R_G.ttf
p1973
aVc:\u005cwindows\u005cfonts\u005cupcfl.ttf
p1974
aVC:\u005cWindows\u005cFonts\u005ccourbi.ttf
p1975
aVC:\u005cWindows\u005cFonts\u005ccorbelb.ttf
p1976
aVc:\u005cwindows\u005cfonts\u005cmsuighur.ttf
p1977
aVc:\u005cwindows\u005cfonts\u005cupcfb.ttf
p1978
aVC:\u005cWindows\u005cFonts\u005cpalai.ttf
p1979
aVC:\u005cWindows\u005cFonts\u005cangsaub.ttf
p1980
aVC:\u005cWindows\u005cFonts\u005cupckb.ttf
p1981
aVC:\u005cWindows\u005cFonts\u005cLaoUIb.ttf
p1982
aVC:\u005cWindows\u005cFonts\u005caparajbi.ttf
p1983
aVc:\u005cwindows\u005cfonts\u005ccordiaui.ttf
p1984
aVC:\u005cWindows\u005cFonts\u005cnyala.ttf
p1985
aVc:\u005cwindows\u005cfonts\u005cmalgunbd.ttf
p1986
aVc:\u005cwindows\u005cfonts\u005cnrkis.ttf
p1987
aVC:\u005cWindows\u005cFonts\u005cShonarb.ttf
p1988
aVC:\u005cWindows\u005cFonts\u005cwebdings.ttf
p1989
aVc:\u005cwindows\u005cfonts\u005cntailu.ttf
p1990
aVc:\u005cwindows\u005cfonts\u005ckartikab.ttf
p1991
aVc:\u005cwindows\u005cfonts\u005cdavid.ttf
p1992
aVC:\u005cWindows\u005cFonts\u005ccalibrili.ttf
p1993
aVC:\u005cWindows\u005cFonts\u005cbrowau.ttf
p1994
aVc:\u005cwindows\u005cfonts\u005cdejavuserif.ttf
p1995
aVc:\u005cwindows\u005cfonts\u005cupcfbi.ttf
p1996
aVc:\u005cwindows\u005cfonts\u005cleelawdb.ttf
p1997
aVc:\u005cwindows\u005cfonts\u005cgeorgiaz.ttf
p1998
aVc:\u005cwindows\u005cfonts\u005ccalibrili.ttf
p1999
aVC:\u005cWindows\u005cFonts\u005cmsjhbd.ttf
p2000
aVc:\u005cwindows\u005cfonts\u005cwebdings.ttf
p2001
aVC:\u005cWindows\u005cFonts\u005cGenBkBasI.ttf
p2002
aVC:\u005cWindows\u005cFonts\u005cupclbi.ttf
p2003
aVC:\u005cWindows\u005cFonts\u005candlso.ttf
p2004
aVC:\u005cWindows\u005cFonts\u005csegoeuiz.ttf
p2005
aVc:\u005cwindows\u005cfonts\u005cvanib.ttf
p2006
aVc:\u005cwindows\u005cfonts\u005cconsolai.ttf
p2007
aVc:\u005cwindows\u005cfonts\u005cmsjh.ttf
p2008
aVc:\u005cwindows\u005cfonts\u005cgeorgia.ttf
p2009
aVC:\u005cWindows\u005cFonts\u005ckokila.ttf
p2010
aVC:\u005cWindows\u005cFonts\u005cverdana.ttf
p2011
aVc:\u005cwindows\u005cfonts\u005csegoeuii.ttf
p2012
aVc:\u005cwindows\u005cfonts\u005cupcli.ttf
p2013
aVc:\u005cwindows\u005cfonts\u005cmonbaiti.ttf
p2014
aVC:\u005cWindows\u005cFonts\u005clathab.ttf
p2015
aVc:\u005cwindows\u005cfonts\u005ckaiu.ttf
p2016
aVC:\u005cWindows\u005cFonts\u005cntailub.ttf
p2017
aVc:\u005cwindows\u005cfonts\u005ccorbel.ttf
p2018
aVC:\u005cWindows\u005cFonts\u005csegoeui.ttf
p2019
aVc:\u005cwindows\u005cfonts\u005ckokila.ttf
p2020
aVc:\u005cwindows\u005cfonts\u005ctimesbd.ttf
p2021
aVc:\u005cwindows\u005cfonts\u005cmajallab.ttf
p2022
aVc:\u005cwindows\u005cfonts\u005cbrowaz.ttf
p2023
aVC:\u005cWindows\u005cFonts\u005csymbol.ttf
p2024
aVC:\u005cWindows\u005cFonts\u005cupcdi.ttf
p2025
aVC:\u005cWindows\u005cFonts\u005cbrowaub.ttf
p2026
aVC:\u005cWindows\u005cFonts\u005caparaji.ttf
p2027
aVc:\u005cwindows\u005cfonts\u005ccordiau.ttf
p2028
aVc:\u005cwindows\u005cfonts\u005csegoesc.ttf
p2029
aVC:\u005cWindows\u005cFonts\u005cpalab.ttf
p2030
aVC:\u005cWindows\u005cFonts\u005cgisha.ttf
p2031
aVc:\u005cwindows\u005cfonts\u005cliberationserif-bolditalic.ttf
p2032
aVC:\u005cWindows\u005cFonts\u005cmsyh.ttf
p2033
aVC:\u005cWindows\u005cFonts\u005carial.ttf
p2034
aVc:\u005cwindows\u005cfonts\u005ccorbelz.ttf
p2035
aVC:\u005cWindows\u005cFonts\u005cGenBasB.ttf
p2036
aVC:\u005cWindows\u005cFonts\u005ctahoma.ttf
p2037
aVC:\u005cWindows\u005cFonts\u005cLinBiolinum_RB_G.ttf
p2038
aVC:\u005cWindows\u005cFonts\u005cDejaVuSerif-Bold.ttf
p2039
aVc:\u005cwindows\u005cfonts\u005ccomic.ttf
p2040
aVC:\u005cWindows\u005cFonts\u005cfrank.ttf
p2041
aVc:\u005cwindows\u005cfonts\u005csegoeprb.ttf
p2042
aVC:\u005cWindows\u005cFonts\u005csimsunb.ttf
p2043
aVC:\u005cWindows\u005cFonts\u005cLinLibertine_RZ_G.ttf
p2044
aVc:\u005cwindows\u005cfonts\u005cangsaz.ttf
p2045
aVc:\u005cwindows\u005cfonts\u005clinlibertine_r_g.ttf
p2046
aVC:\u005cWindows\u005cFonts\u005cahronbd.ttf
p2047
aVC:\u005cWindows\u005cFonts\u005cverdanab.ttf
p2048
aVc:\u005cwindows\u005cfonts\u005ctahoma.ttf
p2049
aVc:\u005cwindows\u005cfonts\u005ckalinga.ttf
p2050
aVc:\u005cwindows\u005cfonts\u005ccorbeli.ttf
p2051
aVC:\u005cWindows\u005cFonts\u005csimpo.ttf
p2052
aVc:\u005cwindows\u005cfonts\u005candlso.ttf
p2053
aVc:\u005cwindows\u005cfonts\u005ccordia.ttf
p2054
aVc:\u005cwindows\u005cfonts\u005cframd.ttf
p2055
aVC:\u005cWindows\u005cFonts\u005cLiberationSans-Bold.ttf
p2056
aVC:\u005cWindows\u005cFonts\u005cLaoUI.ttf
p2057
aVC:\u005cWindows\u005cFonts\u005cupcjb.ttf
p2058
aVc:\u005cwindows\u005cfonts\u005ccordiai.ttf
p2059
aVC:\u005cWindows\u005cFonts\u005cupceb.ttf
p2060
aVc:\u005cwindows\u005cfonts\u005cimpact.ttf
p2061
aVc:\u005cwindows\u005cfonts\u005cmalgun.ttf
p2062
aVC:\u005cWindows\u005cFonts\u005cDejaVuSans-Oblique.ttf
p2063
aVC:\u005cWindows\u005cFonts\u005ccambriab.ttf
p2064
aVc:\u005cwindows\u005cfonts\u005cdejavusans-bold.ttf
p2065
aVC:\u005cWindows\u005cFonts\u005cmsyhbd.ttf
p2066
aVC:\u005cWindows\u005cFonts\u005cDejaVuSerifCondensed-Italic.ttf
p2067
aVc:\u005cwindows\u005cfonts\u005cdejavusans-boldoblique.ttf
p2068
aVc:\u005cwindows\u005cfonts\u005cgeorgiai.ttf
p2069
aVc:\u005cwindows\u005cfonts\u005claouib.ttf
p2070
aVc:\u005cwindows\u005cfonts\u005cpala.ttf
p2071
aVc:\u005cwindows\u005cfonts\u005cdejavuserifcondensed-bold.ttf
p2072
aVc:\u005cwindows\u005cfonts\u005cestre.ttf
p2073
aVc:\u005cwindows\u005cfonts\u005crod.ttf
p2074
aVc:\u005cwindows\u005cfonts\u005ccordiaz.ttf
p2075
aVC:\u005cWindows\u005cFonts\u005cariali.ttf
p2076
aVc:\u005cwindows\u005cfonts\u005cseguisym.ttf
p2077
aVc:\u005cwindows\u005cfonts\u005ccandaraz.ttf
p2078
aVC:\u005cWindows\u005cFonts\u005cebrimabd.ttf
p2079
aVc:\u005cwindows\u005cfonts\u005ccambriaz.ttf
p2080
aVC:\u005cWindows\u005cFonts\u005cbrowaz.ttf
p2081
aVc:\u005cwindows\u005cfonts\u005cangsau.ttf
p2082
aVC:\u005cWindows\u005cFonts\u005cKhmerUIb.ttf
p2083
aVc:\u005cwindows\u005cfonts\u005cgeorgiab.ttf
p2084
aVc:\u005cwindows\u005cfonts\u005cangsaub.ttf
p2085
aVC:\u005cWindows\u005cFonts\u005cconstan.ttf
p2086
aVC:\u005cWindows\u005cFonts\u005cmangal.ttf
p2087
aVC:\u005cWindows\u005cFonts\u005csimpfxo.ttf
p2088
aVC:\u005cWindows\u005cFonts\u005cLiberationMono-Regular.ttf
p2089
aVC:\u005cWindows\u005cFonts\u005cLiberationSansNarrow-Bold.ttf
p2090
aVC:\u005cWindows\u005cFonts\u005cLinLibertine_R_G.ttf
p2091
aVC:\u005cWindows\u005cFonts\u005cupcebi.ttf
p2092
aVC:\u005cWindows\u005cFonts\u005cpala.ttf
p2093
aVc:\u005cwindows\u005cfonts\u005csegoeuib.ttf
p2094
aVc:\u005cwindows\u005cfonts\u005cliberationsansnarrow-regular.ttf
p2095
aVC:\u005cWindows\u005cFonts\u005cDejaVuSerif-Italic.ttf
p2096
aVc:\u005cwindows\u005cfonts\u005csegoeuil.ttf
p2097
aVC:\u005cWindows\u005cFonts\u005cupcfi.ttf
p2098
aVC:\u005cWindows\u005cFonts\u005cdavid.ttf
p2099
aVC:\u005cWindows\u005cFonts\u005crod.ttf
p2100
aVC:\u005cWindows\u005cFonts\u005ccalibri.ttf
p2101
aVC:\u005cWindows\u005cFonts\u005ctrebucit.ttf
p2102
aVc:\u005cwindows\u005cfonts\u005ctungab.ttf
p2103
aVc:\u005cwindows\u005cfonts\u005cdejavusans-extralight.ttf
p2104
aVc:\u005cwindows\u005cfonts\u005cebrima.ttf
p2105
aVC:\u005cWindows\u005cFonts\u005clucon.ttf
p2106
aVC:\u005cWindows\u005cFonts\u005cgeorgiab.ttf
p2107
aVC:\u005cWindows\u005cFonts\u005cvijaya.ttf
p2108
aVC:\u005cWindows\u005cFonts\u005cangsau.ttf
p2109
aVc:\u005cwindows\u005cfonts\u005cangsai.ttf
p2110
aVC:\u005cWindows\u005cFonts\u005carabtype.ttf
p2111
aVC:\u005cWindows\u005cFonts\u005cvrinda.ttf
p2112
aVc:\u005cwindows\u005cfonts\u005cmajalla.ttf
p2113
aVc:\u005cwindows\u005cfonts\u005craavi.ttf
p2114
aVc:\u005cwindows\u005cfonts\u005ctunga.ttf
p2115
aVc:\u005cwindows\u005cfonts\u005cupcibi.ttf
p2116
aVC:\u005cWindows\u005cFonts\u005csegoescb.ttf
p2117
aVc:\u005cwindows\u005cfonts\u005cvrinda.ttf
p2118
aVC:\u005cWindows\u005cFonts\u005ciskpotab.ttf
p2119
aVc:\u005cwindows\u005cfonts\u005cverdana.ttf
p2120
aVC:\u005cWindows\u005cFonts\u005cCandara.ttf
p2121
aVc:\u005cwindows\u005cfonts\u005clvnm.ttf
p2122
aVC:\u005cWindows\u005cFonts\u005cutsaahi.ttf
p2123
aVc:\u005cwindows\u005cfonts\u005cdejavusanscondensed.ttf
p2124
aVC:\u005cWindows\u005cFonts\u005ccordiaub.ttf
p2125
aVc:\u005cwindows\u005cfonts\u005cupcki.ttf
p2126
aVC:\u005cWindows\u005cFonts\u005cGenBasBI.ttf
p2127
aVc:\u005cwindows\u005cfonts\u005cliberationmono-bolditalic.ttf
p2128
aVC:\u005cWindows\u005cFonts\u005cangsaz.ttf
p2129
aVC:\u005cWindows\u005cFonts\u005cleelawad.ttf
p2130
aVc:\u005cwindows\u005cfonts\u005cplantc.ttf
p2131
aVC:\u005cWindows\u005cFonts\u005ctaile.ttf
p2132
aVC:\u005cWindows\u005cFonts\u005cseguisym.ttf
p2133
aVc:\u005cwindows\u005cfonts\u005cconstani.ttf
p2134
aVC:\u005cWindows\u005cFonts\u005ctimes.ttf
p2135
aVC:\u005cWindows\u005cFonts\u005cLiberationSansNarrow-Italic.ttf
p2136
aVc:\u005cwindows\u005cfonts\u005cshruti.ttf
p2137
aVc:\u005cwindows\u005cfonts\u005clinbiolinum_ri_g.ttf
p2138
aVc:\u005cwindows\u005cfonts\u005cgabriola.ttf
p2139
aVC:\u005cWindows\u005cFonts\u005cupcdl.ttf
p2140
aVc:\u005cwindows\u005cfonts\u005cpalabi.ttf
p2141
aVC:\u005cWindows\u005cFonts\u005ccordiaui.ttf
p2142
aVC:\u005cWindows\u005cFonts\u005cphagspa.ttf
p2143
aVc:\u005cwindows\u005cfonts\u005cgenbasb.ttf
p2144
aVc:\u005cwindows\u005cfonts\u005cliberationsansnarrow-italic.ttf
p2145
aVc:\u005cwindows\u005cfonts\u005cbrowa.ttf
p2146
aVC:\u005cWindows\u005cFonts\u005cconsolaz.ttf
p2147
aVC:\u005cWindows\u005cFonts\u005cupcei.ttf
p2148
aVc:\u005cwindows\u005cfonts\u005cgenbkbasb.ttf
p2149
aVc:\u005cwindows\u005cfonts\u005clathab.ttf
p2150
aVc:\u005cwindows\u005cfonts\u005cutsaahbi.ttf
p2151
aVC:\u005cWindows\u005cFonts\u005cDejaVuSansMono-BoldOblique.ttf
p2152
aVC:\u005cWindows\u005cFonts\u005cDejaVuSansCondensed-Bold.ttf
p2153
aVC:\u005cWindows\u005cFonts\u005cLiberationSans-Italic.ttf
p2154
aVc:\u005cwindows\u005cfonts\u005csimfang.ttf
p2155
aVc:\u005cwindows\u005cfonts\u005cmvboli.ttf
p2156
aVC:\u005cWindows\u005cFonts\u005ccordiau.ttf
p2157
aVC:\u005cWindows\u005cFonts\u005cupcki.ttf
p2158
aVC:\u005cWindows\u005cFonts\u005cangsaui.ttf
p2159
aVc:\u005cwindows\u005cfonts\u005clvnmbd.ttf
p2160
aVC:\u005cWindows\u005cFonts\u005cKhmerUI.ttf
p2161
aVC:\u005cWindows\u005cFonts\u005cmonbaiti.ttf
p2162
aVc:\u005cwindows\u005cfonts\u005cdejavusansmono-oblique.ttf
p2163
aVC:\u005cWindows\u005cFonts\u005cplantc.ttf
p2164
aVc:\u005cwindows\u005cfonts\u005ckartika.ttf
p2165
aVc:\u005cwindows\u005cfonts\u005cdokchamp.ttf
p2166
aVc:\u005cwindows\u005cfonts\u005cphagspab.ttf
p2167
aVc:\u005cwindows\u005cfonts\u005cntailub.ttf
p2168
aVc:\u005cwindows\u005cfonts\u005cgishabd.ttf
p2169
aVc:\u005cwindows\u005cfonts\u005ciskpotab.ttf
p2170
asS'_FontManager__default_weight'
p2171
g13
sS'_version'
p2172
I101
sS'ttf_lookup_cache'
p2173
(dp2174
sS'default_size'
p2175
NsS'defaultFont'
p2176
(dp2177
g1564
S'c:\\Python27\\lib\\site-packages\\matplotlib\\mpl-data\\fonts\\pdfcorefonts\\Times-BoldItalic.afm'
p2178
sg1566
g1580
ssS'afmfiles'
p2179
(lp2180
g2178
aS'c:\\Python27\\lib\\site-packages\\matplotlib\\mpl-data\\fonts\\afm\\putbi8a.afm'
p2181
aS'c:\\Python27\\lib\\site-packages\\matplotlib\\mpl-data\\fonts\\afm\\phvbo8a.afm'
p2182
aS'c:\\Python27\\lib\\site-packages\\matplotlib\\mpl-data\\fonts\\pdfcorefonts\\Times-Bold.afm'
p2183
aS'c:\\Python27\\lib\\site-packages\\matplotlib\\mpl-data\\fonts\\afm\\pncbi8a.afm'
p2184
aS'c:\\Python27\\lib\\site-packages\\matplotlib\\mpl-data\\fonts\\afm\\pzdr.afm'
p2185
aS'c:\\Python27\\lib\\site-packages\\matplotlib\\mpl-data\\fonts\\afm\\ptmr8a.afm'
p2186
aS'c:\\Python27\\lib\\site-packages\\matplotlib\\mpl-data\\fonts\\afm\\phvb8a.afm'
p2187
aS'c:\\Python27\\lib\\site-packages\\matplotlib\\mpl-data\\fonts\\afm\\pbkd8a.afm'
p2188
aS'c:\\Python27\\lib\\site-packages\\matplotlib\\mpl-data\\fonts\\pdfcorefonts\\Symbol.afm'
p2189
aS'c:\\Python27\\lib\\site-packages\\matplotlib\\mpl-data\\fonts\\afm\\pplr8a.afm'
p2190
aS'c:\\Python27\\lib\\site-packages\\matplotlib\\mpl-data\\fonts\\pdfcorefonts\\Helvetica.afm'
p2191
aS'c:\\Python27\\lib\\site-packages\\matplotlib\\mpl-data\\fonts\\afm\\ptmri8a.afm'
p2192
aS'c:\\Python27\\lib\\site-packages\\matplotlib\\mpl-data\\fonts\\afm\\pncb8a.afm'
p2193
aS'c:\\Python27\\lib\\site-packages\\matplotlib\\mpl-data\\fonts\\afm\\phvr8a.afm'
p2194
aS'c:\\Python27\\lib\\site-packages\\matplotlib\\mpl-data\\fonts\\afm\\pcrbo8a.afm'
p2195
aS'c:\\Python27\\lib\\site-packages\\matplotlib\\mpl-data\\fonts\\afm\\pplb8a.afm'
p2196
aS'c:\\Python27\\lib\\site-packages\\matplotlib\\mpl-data\\fonts\\pdfcorefonts\\Helvetica-Oblique.afm'
p2197
aS'c:\\Python27\\lib\\site-packages\\matplotlib\\mpl-data\\fonts\\pdfcorefonts\\Times-Italic.afm'
p2198
aS'c:\\Python27\\lib\\site-packages\\matplotlib\\mpl-data\\fonts\\afm\\pplri8a.afm'
p2199
aS'c:\\Python27\\lib\\site-packages\\matplotlib\\mpl-data\\fonts\\afm\\pcrr8a.afm'
p2200
aS'c:\\Python27\\lib\\site-packages\\matplotlib\\mpl-data\\fonts\\afm\\pagdo8a.afm'
p2201
aS'c:\\Python27\\lib\\site-packages\\matplotlib\\mpl-data\\fonts\\pdfcorefonts\\Times-Roman.afm'
p2202
aS'c:\\Python27\\lib\\site-packages\\matplotlib\\mpl-data\\fonts\\afm\\phvbo8an.afm'
p2203
aS'c:\\Python27\\lib\\site-packages\\matplotlib\\mpl-data\\fonts\\afm\\ptmbi8a.afm'
p2204
aS'c:\\Python27\\lib\\site-packages\\matplotlib\\mpl-data\\fonts\\pdfcorefonts\\Courier-Oblique.afm'
p2205
aS'c:\\Python27\\lib\\site-packages\\matplotlib\\mpl-data\\fonts\\afm\\phvlo8a.afm'
p2206
aS'c:\\Python27\\lib\\site-packages\\matplotlib\\mpl-data\\fonts\\afm\\pcrb8a.afm'
p2207
aS'c:\\Python27\\lib\\site-packages\\matplotlib\\mpl-data\\fonts\\afm\\ptmb8a.afm'
p2208
aS'c:\\Python27\\lib\\site-packages\\matplotlib\\mpl-data\\fonts\\pdfcorefonts\\Courier-Bold.afm'
p2209
aS'c:\\Python27\\lib\\site-packages\\matplotlib\\mpl-data\\fonts\\afm\\phvro8an.afm'
p2210
aS'c:\\Python27\\lib\\site-packages\\matplotlib\\mpl-data\\fonts\\afm\\pplbi8a.afm'
p2211
aS'c:\\Python27\\lib\\site-packages\\matplotlib\\mpl-data\\fonts\\pdfcorefonts\\ZapfDingbats.afm'
p2212
aS'c:\\Python27\\lib\\site-packages\\matplotlib\\mpl-data\\fonts\\afm\\psyr.afm'
p2213
aS'c:\\Python27\\lib\\site-packages\\matplotlib\\mpl-data\\fonts\\pdfcorefonts\\Helvetica-Bold.afm'
p2214
aS'c:\\Python27\\lib\\site-packages\\matplotlib\\mpl-data\\fonts\\afm\\cmsy10.afm'
p2215
aS'c:\\Python27\\lib\\site-packages\\matplotlib\\mpl-data\\fonts\\afm\\phvl8a.afm'
p2216
aS'c:\\Python27\\lib\\site-packages\\matplotlib\\mpl-data\\fonts\\pdfcorefonts\\Courier.afm'
p2217
aS'c:\\Python27\\lib\\site-packages\\matplotlib\\mpl-data\\fonts\\afm\\putb8a.afm'
p2218
aS'c:\\Python27\\lib\\site-packages\\matplotlib\\mpl-data\\fonts\\afm\\pbkli8a.afm'
p2219
aS'c:\\Python27\\lib\\site-packages\\matplotlib\\mpl-data\\fonts\\afm\\pzcmi8a.afm'
p2220
aS'c:\\Python27\\lib\\site-packages\\matplotlib\\mpl-data\\fonts\\pdfcorefonts\\Helvetica-BoldOblique.afm'
p2221
aS'c:\\Python27\\lib\\site-packages\\matplotlib\\mpl-data\\fonts\\pdfcorefonts\\Courier-BoldOblique.afm'
p2222
aS'c:\\Python27\\lib\\site-packages\\matplotlib\\mpl-data\\fonts\\afm\\cmex10.afm'
p2223
aS'c:\\Python27\\lib\\site-packages\\matplotlib\\mpl-data\\fonts\\afm\\putr8a.afm'
p2224
aS'c:\\Python27\\lib\\site-packages\\matplotlib\\mpl-data\\fonts\\afm\\pagk8a.afm'
p2225
aS'c:\\Python27\\lib\\site-packages\\matplotlib\\mpl-data\\fonts\\afm\\cmtt10.afm'
p2226
aS'c:\\Python27\\lib\\site-packages\\matplotlib\\mpl-data\\fonts\\afm\\phvr8an.afm'
p2227
aS'c:\\Python27\\lib\\site-packages\\matplotlib\\mpl-data\\fonts\\afm\\pagko8a.afm'
p2228
aS'c:\\Python27\\lib\\site-packages\\matplotlib\\mpl-data\\fonts\\afm\\pncr8a.afm'
p2229
aS'c:\\Python27\\lib\\site-packages\\matplotlib\\mpl-data\\fonts\\afm\\pcrro8a.afm'
p2230
aS'c:\\Python27\\lib\\site-packages\\matplotlib\\mpl-data\\fonts\\afm\\putri8a.afm'
p2231
aS'c:\\Python27\\lib\\site-packages\\matplotlib\\mpl-data\\fonts\\afm\\cmmi10.afm'
p2232
aS'c:\\Python27\\lib\\site-packages\\matplotlib\\mpl-data\\fonts\\afm\\cmr10.afm'
p2233
aS'c:\\Python27\\lib\\site-packages\\matplotlib\\mpl-data\\fonts\\afm\\pbkl8a.afm'
p2234
aS'c:\\Python27\\lib\\site-packages\\matplotlib\\mpl-data\\fonts\\afm\\pagd8a.afm'
p2235
aS'c:\\Python27\\lib\\site-packages\\matplotlib\\mpl-data\\fonts\\afm\\phvro8a.afm'
p2236
aS'c:\\Python27\\lib\\site-packages\\matplotlib\\mpl-data\\fonts\\afm\\phvb8an.afm'
p2237
aS'c:\\Python27\\lib\\site-packages\\matplotlib\\mpl-data\\fonts\\afm\\pncri8a.afm'
p2238
aS'c:\\Python27\\lib\\site-packages\\matplotlib\\mpl-data\\fonts\\afm\\pbkdi8a.afm'
p2239
asS'afmlist'
p2240
(lp2241
g7
(g8
g9
NtRp2242
(dp2243
g12
g94
sg14
S'Times'
p2244
sg16
I700
sg17
g13
sg18
g13
sg19
g2178
sg21
g22
sbag7
(g8
g9
NtRp2245
(dp2246
g12
g94
sg14
S'Utopia'
p2247
sg16
I700
sg17
g13
sg18
g13
sg19
g2181
sg21
g22
sbag7
(g8
g9
NtRp2248
(dp2249
g12
g94
sg14
S'Helvetica'
p2250
sg16
I700
sg17
g13
sg18
g13
sg19
g2182
sg21
g22
sbag7
(g8
g9
NtRp2251
(dp2252
g12
g13
sg14
S'Times'
p2253
sg16
I700
sg17
g13
sg18
g13
sg19
g2183
sg21
g22
sbag7
(g8
g9
NtRp2254
(dp2255
g12
g94
sg14
S'New Century Schoolbook'
p2256
sg16
I700
sg17
g13
sg18
g13
sg19
g2184
sg21
g22
sbag7
(g8
g9
NtRp2257
(dp2258
g12
g13
sg14
S'ITC Zapf Dingbats'
p2259
sg16
I500
sg17
g13
sg18
g13
sg19
g2185
sg21
g22
sbag7
(g8
g9
NtRp2260
(dp2261
g12
g13
sg14
S'Times'
p2262
sg16
I500
sg17
g13
sg18
g13
sg19
g2186
sg21
g22
sbag7
(g8
g9
NtRp2263
(dp2264
g12
g13
sg14
S'Helvetica'
p2265
sg16
I700
sg17
g13
sg18
g13
sg19
g2187
sg21
g22
sbag7
(g8
g9
NtRp2266
(dp2267
g12
g13
sg14
S'ITC Bookman'
p2268
sg16
I600
sg17
g13
sg18
g13
sg19
g2188
sg21
g22
sbag7
(g8
g9
NtRp2269
(dp2270
g12
g13
sg14
S'Symbol'
p2271
sg16
I500
sg17
g13
sg18
g13
sg19
g2189
sg21
g22
sbag7
(g8
g9
NtRp2272
(dp2273
g12
g13
sg14
S'Palatino'
p2274
sg16
I500
sg17
g13
sg18
g13
sg19
g2190
sg21
g22
sbag7
(g8
g9
NtRp2275
(dp2276
g12
g13
sg14
S'Helvetica'
p2277
sg16
I500
sg17
g13
sg18
g13
sg19
g2191
sg21
g22
sbag7
(g8
g9
NtRp2278
(dp2279
g12
g94
sg14
S'Times'
p2280
sg16
I500
sg17
g13
sg18
g13
sg19
g2192
sg21
g22
sbag7
(g8
g9
NtRp2281
(dp2282
g12
g13
sg14
S'New Century Schoolbook'
p2283
sg16
I700
sg17
g13
sg18
g13
sg19
g2193
sg21
g22
sbag7
(g8
g9
NtRp2284
(dp2285
g12
g13
sg14
S'Helvetica'
p2286
sg16
I500
sg17
g13
sg18
g13
sg19
g2194
sg21
g22
sbag7
(g8
g9
NtRp2287
(dp2288
g12
g94
sg14
S'Courier'
p2289
sg16
I700
sg17
g13
sg18
g13
sg19
g2195
sg21
g22
sbag7
(g8
g9
NtRp2290
(dp2291
g12
g13
sg14
S'Palatino'
p2292
sg16
I700
sg17
g13
sg18
g13
sg19
g2196
sg21
g22
sbag7
(g8
g9
NtRp2293
(dp2294
g12
g94
sg14
S'Helvetica'
p2295
sg16
I500
sg17
g13
sg18
g13
sg19
g2197
sg21
g22
sbag7
(g8
g9
NtRp2296
(dp2297
g12
g94
sg14
S'Times'
p2298
sg16
I500
sg17
g13
sg18
g13
sg19
g2198
sg21
g22
sbag7
(g8
g9
NtRp2299
(dp2300
g12
g94
sg14
S'Palatino'
p2301
sg16
I500
sg17
g13
sg18
g13
sg19
g2199
sg21
g22
sbag7
(g8
g9
NtRp2302
(dp2303
g12
g13
sg14
S'Courier'
p2304
sg16
I500
sg17
g13
sg18
g13
sg19
g2200
sg21
g22
sbag7
(g8
g9
NtRp2305
(dp2306
g12
g94
sg14
S'ITC Avant Garde Gothic'
p2307
sg16
I600
sg17
g13
sg18
g13
sg19
g2201
sg21
g22
sbag7
(g8
g9
NtRp2308
(dp2309
g12
g13
sg14
S'Times'
p2310
sg16
I500
sg17
g13
sg18
g13
sg19
g2202
sg21
g22
sbag7
(g8
g9
NtRp2311
(dp2312
g12
g94
sg14
S'Helvetica'
p2313
sg16
I700
sg17
g236
sg18
g13
sg19
g2203
sg21
g22
sbag7
(g8
g9
NtRp2314
(dp2315
g12
g94
sg14
S'Times'
p2316
sg16
I700
sg17
g13
sg18
g13
sg19
g2204
sg21
g22
sbag7
(g8
g9
NtRp2317
(dp2318
g12
g94
sg14
S'Courier'
p2319
sg16
I500
sg17
g13
sg18
g13
sg19
g2205
sg21
g22
sbag7
(g8
g9
NtRp2320
(dp2321
g12
g94
sg14
S'Helvetica'
p2322
sg16
I200
sg17
g13
sg18
g13
sg19
g2206
sg21
g22
sbag7
(g8
g9
NtRp2323
(dp2324
g12
g13
sg14
S'Courier'
p2325
sg16
I700
sg17
g13
sg18
g13
sg19
g2207
sg21
g22
sbag7
(g8
g9
NtRp2326
(dp2327
g12
g13
sg14
S'Times'
p2328
sg16
I700
sg17
g13
sg18
g13
sg19
g2208
sg21
g22
sbag7
(g8
g9
NtRp2329
(dp2330
g12
g13
sg14
S'Courier'
p2331
sg16
I700
sg17
g13
sg18
g13
sg19
g2209
sg21
g22
sbag7
(g8
g9
NtRp2332
(dp2333
g12
g94
sg14
S'Helvetica'
p2334
sg16
I500
sg17
g236
sg18
g13
sg19
g2210
sg21
g22
sbag7
(g8
g9
NtRp2335
(dp2336
g12
g94
sg14
S'Palatino'
p2337
sg16
I700
sg17
g13
sg18
g13
sg19
g2211
sg21
g22
sbag7
(g8
g9
NtRp2338
(dp2339
g12
g13
sg14
S'ZapfDingbats'
p2340
sg16
I500
sg17
g13
sg18
g13
sg19
g2212
sg21
g22
sbag7
(g8
g9
NtRp2341
(dp2342
g12
g13
sg14
S'Symbol'
p2343
sg16
I500
sg17
g13
sg18
g13
sg19
g2213
sg21
g22
sbag7
(g8
g9
NtRp2344
(dp2345
g12
g13
sg14
S'Helvetica'
p2346
sg16
I700
sg17
g13
sg18
g13
sg19
g2214
sg21
g22
sbag7
(g8
g9
NtRp2347
(dp2348
g12
g94
sg14
S'Computer Modern'
p2349
sg16
I500
sg17
g13
sg18
g13
sg19
g2215
sg21
g22
sbag7
(g8
g9
NtRp2350
(dp2351
g12
g13
sg14
S'Helvetica'
p2352
sg16
I200
sg17
g13
sg18
g13
sg19
g2216
sg21
g22
sbag7
(g8
g9
NtRp2353
(dp2354
g12
g13
sg14
S'Courier'
p2355
sg16
I500
sg17
g13
sg18
g13
sg19
g2217
sg21
g22
sbag7
(g8
g9
NtRp2356
(dp2357
g12
g13
sg14
S'Utopia'
p2358
sg16
I700
sg17
g13
sg18
g13
sg19
g2218
sg21
g22
sbag7
(g8
g9
NtRp2359
(dp2360
g12
g94
sg14
S'ITC Bookman'
p2361
sg16
I200
sg17
g13
sg18
g13
sg19
g2219
sg21
g22
sbag7
(g8
g9
NtRp2362
(dp2363
g12
g94
sg14
S'ITC Zapf Chancery'
p2364
sg16
I500
sg17
g13
sg18
g13
sg19
g2220
sg21
g22
sbag7
(g8
g9
NtRp2365
(dp2366
g12
g94
sg14
S'Helvetica'
p2367
sg16
I700
sg17
g13
sg18
g13
sg19
g2221
sg21
g22
sbag7
(g8
g9
NtRp2368
(dp2369
g12
g94
sg14
S'Courier'
p2370
sg16
I700
sg17
g13
sg18
g13
sg19
g2222
sg21
g22
sbag7
(g8
g9
NtRp2371
(dp2372
g12
g13
sg14
S'Computer Modern'
p2373
sg16
I500
sg17
g13
sg18
g13
sg19
g2223
sg21
g22
sbag7
(g8
g9
NtRp2374
(dp2375
g12
g13
sg14
S'Utopia'
p2376
sg16
I400
sg17
g13
sg18
g13
sg19
g2224
sg21
g22
sbag7
(g8
g9
NtRp2377
(dp2378
g12
g13
sg14
S'ITC Avant Garde Gothic'
p2379
sg16
I400
sg17
g13
sg18
g13
sg19
g2225
sg21
g22
sbag7
(g8
g9
NtRp2380
(dp2381
g12
g13
sg14
S'Computer Modern'
p2382
sg16
I500
sg17
g13
sg18
g13
sg19
g2226
sg21
g22
sbag7
(g8
g9
NtRp2383
(dp2384
g12
g13
sg14
S'Helvetica'
p2385
sg16
I500
sg17
g236
sg18
g13
sg19
g2227
sg21
g22
sbag7
(g8
g9
NtRp2386
(dp2387
g12
g94
sg14
S'ITC Avant Garde Gothic'
p2388
sg16
I400
sg17
g13
sg18
g13
sg19
g2228
sg21
g22
sbag7
(g8
g9
NtRp2389
(dp2390
g12
g13
sg14
S'New Century Schoolbook'
p2391
sg16
I500
sg17
g13
sg18
g13
sg19
g2229
sg21
g22
sbag7
(g8
g9
NtRp2392
(dp2393
g12
g94
sg14
S'Courier'
p2394
sg16
I500
sg17
g13
sg18
g13
sg19
g2230
sg21
g22
sbag7
(g8
g9
NtRp2395
(dp2396
g12
g94
sg14
S'Utopia'
p2397
sg16
I400
sg17
g13
sg18
g13
sg19
g2231
sg21
g22
sbag7
(g8
g9
NtRp2398
(dp2399
g12
g94
sg14
S'Computer Modern'
p2400
sg16
I500
sg17
g13
sg18
g13
sg19
g2232
sg21
g22
sbag7
(g8
g9
NtRp2401
(dp2402
g12
g13
sg14
S'Computer Modern'
p2403
sg16
I500
sg17
g13
sg18
g13
sg19
g2233
sg21
g22
sbag7
(g8
g9
NtRp2404
(dp2405
g12
g13
sg14
S'ITC Bookman'
p2406
sg16
I200
sg17
g13
sg18
g13
sg19
g2234
sg21
g22
sbag7
(g8
g9
NtRp2407
(dp2408
g12
g13
sg14
S'ITC Avant Garde Gothic'
p2409
sg16
I600
sg17
g13
sg18
g13
sg19
g2235
sg21
g22
sbag7
(g8
g9
NtRp2410
(dp2411
g12
g94
sg14
S'Helvetica'
p2412
sg16
I500
sg17
g13
sg18
g13
sg19
g2236
sg21
g22
sbag7
(g8
g9
NtRp2413
(dp2414
g12
g13
sg14
S'Helvetica'
p2415
sg16
I700
sg17
g236
sg18
g13
sg19
g2237
sg21
g22
sbag7
(g8
g9
NtRp2416
(dp2417
g12
g94
sg14
S'New Century Schoolbook'
p2418
sg16
I500
sg17
g13
sg18
g13
sg19
g2238
sg21
g22
sbag7
(g8
g9
NtRp2419
(dp2420
g12
g94
sg14
S'ITC Bookman'
p2421
sg16
I600
sg17
g13
sg18
g13
sg19
g2239
sg21
g22
sbasb.